Disassembly of section .init:

0000000000400bb0 <_init>:
  400bb0:	48 83 ec 08          	sub    $0x8,%rsp
  400bb4:	48 8b 05 3d 34 20 00 	mov    0x20343d(%rip),%rax        # 603ff8 <__gmon_start__>
  400bbb:	48 85 c0             	test   %rax,%rax
  400bbe:	74 05                	je     400bc5 <_init+0x15>
  400bc0:	e8 2b 02 00 00       	callq  400df0 <.plt.got>
  400bc5:	48 83 c4 08          	add    $0x8,%rsp
  400bc9:	c3                   	retq   

Disassembly of section .plt:

0000000000400bd0 <.plt>:
  400bd0:	ff 35 32 34 20 00    	pushq  0x203432(%rip)        # 604008 <_GLOBAL_OFFSET_TABLE_+0x8>
  400bd6:	ff 25 34 34 20 00    	jmpq   *0x203434(%rip)        # 604010 <_GLOBAL_OFFSET_TABLE_+0x10>
  400bdc:	0f 1f 40 00          	nopl   0x0(%rax)

0000000000400be0 <strcasecmp@plt>:
  400be0:	ff 25 32 34 20 00    	jmpq   *0x203432(%rip)        # 604018 <strcasecmp@GLIBC_2.2.5>
  400be6:	68 00 00 00 00       	pushq  $0x0
  400beb:	e9 e0 ff ff ff       	jmpq   400bd0 <.plt>

0000000000400bf0 <__errno_location@plt>:
  400bf0:	ff 25 2a 34 20 00    	jmpq   *0x20342a(%rip)        # 604020 <__errno_location@GLIBC_2.2.5>
  400bf6:	68 01 00 00 00       	pushq  $0x1
  400bfb:	e9 d0 ff ff ff       	jmpq   400bd0 <.plt>

0000000000400c00 <srandom@plt>:
  400c00:	ff 25 22 34 20 00    	jmpq   *0x203422(%rip)        # 604028 <srandom@GLIBC_2.2.5>
  400c06:	68 02 00 00 00       	pushq  $0x2
  400c0b:	e9 c0 ff ff ff       	jmpq   400bd0 <.plt>

0000000000400c10 <strncmp@plt>:
  400c10:	ff 25 1a 34 20 00    	jmpq   *0x20341a(%rip)        # 604030 <strncmp@GLIBC_2.2.5>
  400c16:	68 03 00 00 00       	pushq  $0x3
  400c1b:	e9 b0 ff ff ff       	jmpq   400bd0 <.plt>

0000000000400c20 <strcpy@plt>:
  400c20:	ff 25 12 34 20 00    	jmpq   *0x203412(%rip)        # 604038 <strcpy@GLIBC_2.2.5>
  400c26:	68 04 00 00 00       	pushq  $0x4
  400c2b:	e9 a0 ff ff ff       	jmpq   400bd0 <.plt>

0000000000400c30 <puts@plt>:
  400c30:	ff 25 0a 34 20 00    	jmpq   *0x20340a(%rip)        # 604040 <puts@GLIBC_2.2.5>
  400c36:	68 05 00 00 00       	pushq  $0x5
  400c3b:	e9 90 ff ff ff       	jmpq   400bd0 <.plt>

0000000000400c40 <write@plt>:
  400c40:	ff 25 02 34 20 00    	jmpq   *0x203402(%rip)        # 604048 <write@GLIBC_2.2.5>
  400c46:	68 06 00 00 00       	pushq  $0x6
  400c4b:	e9 80 ff ff ff       	jmpq   400bd0 <.plt>

0000000000400c50 <mmap@plt>:
  400c50:	ff 25 fa 33 20 00    	jmpq   *0x2033fa(%rip)        # 604050 <mmap@GLIBC_2.2.5>
  400c56:	68 07 00 00 00       	pushq  $0x7
  400c5b:	e9 70 ff ff ff       	jmpq   400bd0 <.plt>

0000000000400c60 <printf@plt>:
  400c60:	ff 25 f2 33 20 00    	jmpq   *0x2033f2(%rip)        # 604058 <printf@GLIBC_2.2.5>
  400c66:	68 08 00 00 00       	pushq  $0x8
  400c6b:	e9 60 ff ff ff       	jmpq   400bd0 <.plt>

0000000000400c70 <memset@plt>:
  400c70:	ff 25 ea 33 20 00    	jmpq   *0x2033ea(%rip)        # 604060 <memset@GLIBC_2.2.5>
  400c76:	68 09 00 00 00       	pushq  $0x9
  400c7b:	e9 50 ff ff ff       	jmpq   400bd0 <.plt>

0000000000400c80 <alarm@plt>:
  400c80:	ff 25 e2 33 20 00    	jmpq   *0x2033e2(%rip)        # 604068 <alarm@GLIBC_2.2.5>
  400c86:	68 0a 00 00 00       	pushq  $0xa
  400c8b:	e9 40 ff ff ff       	jmpq   400bd0 <.plt>

0000000000400c90 <close@plt>:
  400c90:	ff 25 da 33 20 00    	jmpq   *0x2033da(%rip)        # 604070 <close@GLIBC_2.2.5>
  400c96:	68 0b 00 00 00       	pushq  $0xb
  400c9b:	e9 30 ff ff ff       	jmpq   400bd0 <.plt>

0000000000400ca0 <read@plt>:
  400ca0:	ff 25 d2 33 20 00    	jmpq   *0x2033d2(%rip)        # 604078 <read@GLIBC_2.2.5>
  400ca6:	68 0c 00 00 00       	pushq  $0xc
  400cab:	e9 20 ff ff ff       	jmpq   400bd0 <.plt>

0000000000400cb0 <__libc_start_main@plt>:
  400cb0:	ff 25 ca 33 20 00    	jmpq   *0x2033ca(%rip)        # 604080 <__libc_start_main@GLIBC_2.2.5>
  400cb6:	68 0d 00 00 00       	pushq  $0xd
  400cbb:	e9 10 ff ff ff       	jmpq   400bd0 <.plt>

0000000000400cc0 <signal@plt>:
  400cc0:	ff 25 c2 33 20 00    	jmpq   *0x2033c2(%rip)        # 604088 <signal@GLIBC_2.2.5>
  400cc6:	68 0e 00 00 00       	pushq  $0xe
  400ccb:	e9 00 ff ff ff       	jmpq   400bd0 <.plt>

0000000000400cd0 <gethostbyname@plt>:
  400cd0:	ff 25 ba 33 20 00    	jmpq   *0x2033ba(%rip)        # 604090 <gethostbyname@GLIBC_2.2.5>
  400cd6:	68 0f 00 00 00       	pushq  $0xf
  400cdb:	e9 f0 fe ff ff       	jmpq   400bd0 <.plt>

0000000000400ce0 <fprintf@plt>:
  400ce0:	ff 25 b2 33 20 00    	jmpq   *0x2033b2(%rip)        # 604098 <fprintf@GLIBC_2.2.5>
  400ce6:	68 10 00 00 00       	pushq  $0x10
  400ceb:	e9 e0 fe ff ff       	jmpq   400bd0 <.plt>

0000000000400cf0 <strtol@plt>:
  400cf0:	ff 25 aa 33 20 00    	jmpq   *0x2033aa(%rip)        # 6040a0 <strtol@GLIBC_2.2.5>
  400cf6:	68 11 00 00 00       	pushq  $0x11
  400cfb:	e9 d0 fe ff ff       	jmpq   400bd0 <.plt>

0000000000400d00 <memcpy@plt>:
  400d00:	ff 25 a2 33 20 00    	jmpq   *0x2033a2(%rip)        # 6040a8 <memcpy@GLIBC_2.14>
  400d06:	68 12 00 00 00       	pushq  $0x12
  400d0b:	e9 c0 fe ff ff       	jmpq   400bd0 <.plt>

0000000000400d10 <time@plt>:
  400d10:	ff 25 9a 33 20 00    	jmpq   *0x20339a(%rip)        # 6040b0 <time@GLIBC_2.2.5>
  400d16:	68 13 00 00 00       	pushq  $0x13
  400d1b:	e9 b0 fe ff ff       	jmpq   400bd0 <.plt>

0000000000400d20 <random@plt>:
  400d20:	ff 25 92 33 20 00    	jmpq   *0x203392(%rip)        # 6040b8 <random@GLIBC_2.2.5>
  400d26:	68 14 00 00 00       	pushq  $0x14
  400d2b:	e9 a0 fe ff ff       	jmpq   400bd0 <.plt>

0000000000400d30 <_IO_getc@plt>:
  400d30:	ff 25 8a 33 20 00    	jmpq   *0x20338a(%rip)        # 6040c0 <_IO_getc@GLIBC_2.2.5>
  400d36:	68 15 00 00 00       	pushq  $0x15
  400d3b:	e9 90 fe ff ff       	jmpq   400bd0 <.plt>

0000000000400d40 <__isoc99_sscanf@plt>:
  400d40:	ff 25 82 33 20 00    	jmpq   *0x203382(%rip)        # 6040c8 <__isoc99_sscanf@GLIBC_2.7>
  400d46:	68 16 00 00 00       	pushq  $0x16
  400d4b:	e9 80 fe ff ff       	jmpq   400bd0 <.plt>

0000000000400d50 <munmap@plt>:
  400d50:	ff 25 7a 33 20 00    	jmpq   *0x20337a(%rip)        # 6040d0 <munmap@GLIBC_2.2.5>
  400d56:	68 17 00 00 00       	pushq  $0x17
  400d5b:	e9 70 fe ff ff       	jmpq   400bd0 <.plt>

0000000000400d60 <bcopy@plt>:
  400d60:	ff 25 72 33 20 00    	jmpq   *0x203372(%rip)        # 6040d8 <bcopy@GLIBC_2.2.5>
  400d66:	68 18 00 00 00       	pushq  $0x18
  400d6b:	e9 60 fe ff ff       	jmpq   400bd0 <.plt>

0000000000400d70 <fopen@plt>:
  400d70:	ff 25 6a 33 20 00    	jmpq   *0x20336a(%rip)        # 6040e0 <fopen@GLIBC_2.2.5>
  400d76:	68 19 00 00 00       	pushq  $0x19
  400d7b:	e9 50 fe ff ff       	jmpq   400bd0 <.plt>

0000000000400d80 <getopt@plt>:
  400d80:	ff 25 62 33 20 00    	jmpq   *0x203362(%rip)        # 6040e8 <getopt@GLIBC_2.2.5>
  400d86:	68 1a 00 00 00       	pushq  $0x1a
  400d8b:	e9 40 fe ff ff       	jmpq   400bd0 <.plt>

0000000000400d90 <strtoul@plt>:
  400d90:	ff 25 5a 33 20 00    	jmpq   *0x20335a(%rip)        # 6040f0 <strtoul@GLIBC_2.2.5>
  400d96:	68 1b 00 00 00       	pushq  $0x1b
  400d9b:	e9 30 fe ff ff       	jmpq   400bd0 <.plt>

0000000000400da0 <gethostname@plt>:
  400da0:	ff 25 52 33 20 00    	jmpq   *0x203352(%rip)        # 6040f8 <gethostname@GLIBC_2.2.5>
  400da6:	68 1c 00 00 00       	pushq  $0x1c
  400dab:	e9 20 fe ff ff       	jmpq   400bd0 <.plt>

0000000000400db0 <sprintf@plt>:
  400db0:	ff 25 4a 33 20 00    	jmpq   *0x20334a(%rip)        # 604100 <sprintf@GLIBC_2.2.5>
  400db6:	68 1d 00 00 00       	pushq  $0x1d
  400dbb:	e9 10 fe ff ff       	jmpq   400bd0 <.plt>

0000000000400dc0 <exit@plt>:
  400dc0:	ff 25 42 33 20 00    	jmpq   *0x203342(%rip)        # 604108 <exit@GLIBC_2.2.5>
  400dc6:	68 1e 00 00 00       	pushq  $0x1e
  400dcb:	e9 00 fe ff ff       	jmpq   400bd0 <.plt>

0000000000400dd0 <connect@plt>:
  400dd0:	ff 25 3a 33 20 00    	jmpq   *0x20333a(%rip)        # 604110 <connect@GLIBC_2.2.5>
  400dd6:	68 1f 00 00 00       	pushq  $0x1f
  400ddb:	e9 f0 fd ff ff       	jmpq   400bd0 <.plt>

0000000000400de0 <socket@plt>:
  400de0:	ff 25 32 33 20 00    	jmpq   *0x203332(%rip)        # 604118 <socket@GLIBC_2.2.5>
  400de6:	68 20 00 00 00       	pushq  $0x20
  400deb:	e9 e0 fd ff ff       	jmpq   400bd0 <.plt>

Disassembly of section .plt.got:

0000000000400df0 <.plt.got>:
  400df0:	ff 25 02 32 20 00    	jmpq   *0x203202(%rip)        # 603ff8 <__gmon_start__>
  400df6:	66 90                	xchg   %ax,%ax

Disassembly of section .text:

0000000000400e00 <_start>:
  400e00:	31 ed                	xor    %ebp,%ebp
  400e02:	49 89 d1             	mov    %rdx,%r9
  400e05:	5e                   	pop    %rsi
  400e06:	48 89 e2             	mov    %rsp,%rdx
  400e09:	48 83 e4 f0          	and    $0xfffffffffffffff0,%rsp
  400e0d:	50                   	push   %rax
  400e0e:	54                   	push   %rsp
  400e0f:	49 c7 c0 e0 2b 40 00 	mov    $0x402be0,%r8
  400e16:	48 c7 c1 70 2b 40 00 	mov    $0x402b70,%rcx
  400e1d:	48 c7 c7 ba 10 40 00 	mov    $0x4010ba,%rdi
  400e24:	e8 87 fe ff ff       	callq  400cb0 <__libc_start_main@plt>
  400e29:	f4                   	hlt    
  400e2a:	66 0f 1f 44 00 00    	nopw   0x0(%rax,%rax,1)

0000000000400e30 <deregister_tm_clones>:
  400e30:	b8 97 44 60 00       	mov    $0x604497,%eax
  400e35:	55                   	push   %rbp
  400e36:	48 2d 90 44 60 00    	sub    $0x604490,%rax
  400e3c:	48 83 f8 0e          	cmp    $0xe,%rax
  400e40:	48 89 e5             	mov    %rsp,%rbp
  400e43:	77 02                	ja     400e47 <deregister_tm_clones+0x17>
  400e45:	5d                   	pop    %rbp
  400e46:	c3                   	retq   
  400e47:	b8 00 00 00 00       	mov    $0x0,%eax
  400e4c:	48 85 c0             	test   %rax,%rax
  400e4f:	74 f4                	je     400e45 <deregister_tm_clones+0x15>
  400e51:	5d                   	pop    %rbp
  400e52:	bf 90 44 60 00       	mov    $0x604490,%edi
  400e57:	ff e0                	jmpq   *%rax
  400e59:	0f 1f 80 00 00 00 00 	nopl   0x0(%rax)

0000000000400e60 <register_tm_clones>:
  400e60:	b8 90 44 60 00       	mov    $0x604490,%eax
  400e65:	55                   	push   %rbp
  400e66:	48 2d 90 44 60 00    	sub    $0x604490,%rax
  400e6c:	48 c1 f8 03          	sar    $0x3,%rax
  400e70:	48 89 e5             	mov    %rsp,%rbp
  400e73:	48 89 c2             	mov    %rax,%rdx
  400e76:	48 c1 ea 3f          	shr    $0x3f,%rdx
  400e7a:	48 01 d0             	add    %rdx,%rax
  400e7d:	48 d1 f8             	sar    %rax
  400e80:	75 02                	jne    400e84 <register_tm_clones+0x24>
  400e82:	5d                   	pop    %rbp
  400e83:	c3                   	retq   
  400e84:	ba 00 00 00 00       	mov    $0x0,%edx
  400e89:	48 85 d2             	test   %rdx,%rdx
  400e8c:	74 f4                	je     400e82 <register_tm_clones+0x22>
  400e8e:	5d                   	pop    %rbp
  400e8f:	48 89 c6             	mov    %rax,%rsi
  400e92:	bf 90 44 60 00       	mov    $0x604490,%edi
  400e97:	ff e2                	jmpq   *%rdx
  400e99:	0f 1f 80 00 00 00 00 	nopl   0x0(%rax)

0000000000400ea0 <__do_global_dtors_aux>:
  400ea0:	80 3d 11 36 20 00 00 	cmpb   $0x0,0x203611(%rip)        # 6044b8 <completed.6355>
  400ea7:	75 11                	jne    400eba <__do_global_dtors_aux+0x1a>
  400ea9:	55                   	push   %rbp
  400eaa:	48 89 e5             	mov    %rsp,%rbp
  400ead:	e8 7e ff ff ff       	callq  400e30 <deregister_tm_clones>
  400eb2:	5d                   	pop    %rbp
  400eb3:	c6 05 fe 35 20 00 01 	movb   $0x1,0x2035fe(%rip)        # 6044b8 <completed.6355>
  400eba:	f3 c3                	repz retq 
  400ebc:	0f 1f 40 00          	nopl   0x0(%rax)

0000000000400ec0 <frame_dummy>:
  400ec0:	48 83 3d 58 2f 20 00 	cmpq   $0x0,0x202f58(%rip)        # 603e20 <__JCR_END__>
  400ec7:	00 
  400ec8:	74 1e                	je     400ee8 <frame_dummy+0x28>
  400eca:	b8 00 00 00 00       	mov    $0x0,%eax
  400ecf:	48 85 c0             	test   %rax,%rax
  400ed2:	74 14                	je     400ee8 <frame_dummy+0x28>
  400ed4:	55                   	push   %rbp
  400ed5:	bf 20 3e 60 00       	mov    $0x603e20,%edi
  400eda:	48 89 e5             	mov    %rsp,%rbp
  400edd:	ff d0                	callq  *%rax
  400edf:	5d                   	pop    %rbp
  400ee0:	e9 7b ff ff ff       	jmpq   400e60 <register_tm_clones>
  400ee5:	0f 1f 00             	nopl   (%rax)
  400ee8:	e9 73 ff ff ff       	jmpq   400e60 <register_tm_clones>

0000000000400eed <usage>:
  400eed:	48 83 ec 08          	sub    $0x8,%rsp
  400ef1:	48 89 fe             	mov    %rdi,%rsi
  400ef4:	83 3d ed 35 20 00 00 	cmpl   $0x0,0x2035ed(%rip)        # 6044e8 <is_checker>
  400efb:	74 39                	je     400f36 <usage+0x49>
  400efd:	bf 00 2c 40 00       	mov    $0x402c00,%edi
  400f02:	b8 00 00 00 00       	mov    $0x0,%eax
  400f07:	e8 54 fd ff ff       	callq  400c60 <printf@plt>
  400f0c:	bf 38 2c 40 00       	mov    $0x402c38,%edi
  400f11:	e8 1a fd ff ff       	callq  400c30 <puts@plt>
  400f16:	bf b0 2d 40 00       	mov    $0x402db0,%edi
  400f1b:	e8 10 fd ff ff       	callq  400c30 <puts@plt>
  400f20:	bf 60 2c 40 00       	mov    $0x402c60,%edi
  400f25:	e8 06 fd ff ff       	callq  400c30 <puts@plt>
  400f2a:	bf ca 2d 40 00       	mov    $0x402dca,%edi
  400f2f:	e8 fc fc ff ff       	callq  400c30 <puts@plt>
  400f34:	eb 2d                	jmp    400f63 <usage+0x76>
  400f36:	bf e6 2d 40 00       	mov    $0x402de6,%edi
  400f3b:	b8 00 00 00 00       	mov    $0x0,%eax
  400f40:	e8 1b fd ff ff       	callq  400c60 <printf@plt>
  400f45:	bf 88 2c 40 00       	mov    $0x402c88,%edi
  400f4a:	e8 e1 fc ff ff       	callq  400c30 <puts@plt>
  400f4f:	bf b0 2c 40 00       	mov    $0x402cb0,%edi
  400f54:	e8 d7 fc ff ff       	callq  400c30 <puts@plt>
  400f59:	bf 04 2e 40 00       	mov    $0x402e04,%edi
  400f5e:	e8 cd fc ff ff       	callq  400c30 <puts@plt>
  400f63:	bf 00 00 00 00       	mov    $0x0,%edi
  400f68:	e8 53 fe ff ff       	callq  400dc0 <exit@plt>

0000000000400f6d <initialize_target>:
  400f6d:	55                   	push   %rbp
  400f6e:	53                   	push   %rbx
  400f6f:	48 81 ec 08 21 00 00 	sub    $0x2108,%rsp
  400f76:	89 f5                	mov    %esi,%ebp
  400f78:	89 3d 5a 35 20 00    	mov    %edi,0x20355a(%rip)        # 6044d8 <check_level>
  400f7e:	8b 3d c4 31 20 00    	mov    0x2031c4(%rip),%edi        # 604148 <target_id>
  400f84:	e8 c5 1b 00 00       	callq  402b4e <gencookie>
  400f89:	89 05 55 35 20 00    	mov    %eax,0x203555(%rip)        # 6044e4 <cookie>
  400f8f:	89 c7                	mov    %eax,%edi
  400f91:	e8 b8 1b 00 00       	callq  402b4e <gencookie>
  400f96:	89 05 44 35 20 00    	mov    %eax,0x203544(%rip)        # 6044e0 <authkey>
  400f9c:	8b 05 a6 31 20 00    	mov    0x2031a6(%rip),%eax        # 604148 <target_id>
  400fa2:	8d 78 01             	lea    0x1(%rax),%edi
  400fa5:	e8 56 fc ff ff       	callq  400c00 <srandom@plt>
  400faa:	e8 71 fd ff ff       	callq  400d20 <random@plt>
  400faf:	89 c7                	mov    %eax,%edi
  400fb1:	e8 c5 02 00 00       	callq  40127b <scramble>
  400fb6:	89 c3                	mov    %eax,%ebx
  400fb8:	ba 00 00 00 00       	mov    $0x0,%edx
  400fbd:	85 ed                	test   %ebp,%ebp
  400fbf:	74 18                	je     400fd9 <initialize_target+0x6c>
  400fc1:	bf 00 00 00 00       	mov    $0x0,%edi
  400fc6:	e8 45 fd ff ff       	callq  400d10 <time@plt>
  400fcb:	89 c7                	mov    %eax,%edi
  400fcd:	e8 2e fc ff ff       	callq  400c00 <srandom@plt>
  400fd2:	e8 49 fd ff ff       	callq  400d20 <random@plt>
  400fd7:	89 c2                	mov    %eax,%edx
  400fd9:	01 da                	add    %ebx,%edx
  400fdb:	0f b7 d2             	movzwl %dx,%edx
  400fde:	8d 04 d5 00 01 00 00 	lea    0x100(,%rdx,8),%eax
  400fe5:	89 c0                	mov    %eax,%eax
  400fe7:	48 89 05 92 34 20 00 	mov    %rax,0x203492(%rip)        # 604480 <buf_offset>
  400fee:	c6 05 13 41 20 00 63 	movb   $0x63,0x204113(%rip)        # 605108 <target_prefix>
  400ff5:	83 3d 8c 34 20 00 00 	cmpl   $0x0,0x20348c(%rip)        # 604488 <notify>
  400ffc:	0f 84 ae 00 00 00    	je     4010b0 <initialize_target+0x143>
  401002:	83 3d df 34 20 00 00 	cmpl   $0x0,0x2034df(%rip)        # 6044e8 <is_checker>
  401009:	0f 85 a1 00 00 00    	jne    4010b0 <initialize_target+0x143>
  40100f:	be 00 01 00 00       	mov    $0x100,%esi
  401014:	48 89 e7             	mov    %rsp,%rdi
  401017:	e8 84 fd ff ff       	callq  400da0 <gethostname@plt>
  40101c:	85 c0                	test   %eax,%eax
  40101e:	75 13                	jne    401033 <initialize_target+0xc6>
  401020:	48 8b 3d 39 31 20 00 	mov    0x203139(%rip),%rdi        # 604160 <host_table>
  401027:	bb 68 41 60 00       	mov    $0x604168,%ebx
  40102c:	48 85 ff             	test   %rdi,%rdi
  40102f:	75 16                	jne    401047 <initialize_target+0xda>
  401031:	eb 50                	jmp    401083 <initialize_target+0x116>
  401033:	bf e0 2c 40 00       	mov    $0x402ce0,%edi
  401038:	e8 f3 fb ff ff       	callq  400c30 <puts@plt>
  40103d:	bf 08 00 00 00       	mov    $0x8,%edi
  401042:	e8 79 fd ff ff       	callq  400dc0 <exit@plt>
  401047:	48 89 e6             	mov    %rsp,%rsi
  40104a:	e8 91 fb ff ff       	callq  400be0 <strcasecmp@plt>
  40104f:	85 c0                	test   %eax,%eax
  401051:	74 4c                	je     40109f <initialize_target+0x132>
  401053:	48 83 c3 08          	add    $0x8,%rbx
  401057:	48 8b 7b f8          	mov    -0x8(%rbx),%rdi
  40105b:	48 85 ff             	test   %rdi,%rdi
  40105e:	75 e7                	jne    401047 <initialize_target+0xda>
  401060:	eb 21                	jmp    401083 <initialize_target+0x116>
  401062:	48 8d b4 24 00 01 00 	lea    0x100(%rsp),%rsi
  401069:	00 
  40106a:	bf 18 2d 40 00       	mov    $0x402d18,%edi
  40106f:	b8 00 00 00 00       	mov    $0x0,%eax
  401074:	e8 e7 fb ff ff       	callq  400c60 <printf@plt>
  401079:	bf 08 00 00 00       	mov    $0x8,%edi
  40107e:	e8 3d fd ff ff       	callq  400dc0 <exit@plt>
  401083:	48 89 e6             	mov    %rsp,%rsi
  401086:	bf 40 2d 40 00       	mov    $0x402d40,%edi
  40108b:	b8 00 00 00 00       	mov    $0x0,%eax
  401090:	e8 cb fb ff ff       	callq  400c60 <printf@plt>
  401095:	bf 08 00 00 00       	mov    $0x8,%edi
  40109a:	e8 21 fd ff ff       	callq  400dc0 <exit@plt>
  40109f:	48 8d bc 24 00 01 00 	lea    0x100(%rsp),%rdi
  4010a6:	00 
  4010a7:	e8 1e 18 00 00       	callq  4028ca <init_driver>
  4010ac:	85 c0                	test   %eax,%eax
  4010ae:	78 b2                	js     401062 <initialize_target+0xf5>
  4010b0:	48 81 c4 08 21 00 00 	add    $0x2108,%rsp
  4010b7:	5b                   	pop    %rbx
  4010b8:	5d                   	pop    %rbp
  4010b9:	c3                   	retq   

00000000004010ba <main>:
  4010ba:	41 56                	push   %r14
  4010bc:	41 55                	push   %r13
  4010be:	41 54                	push   %r12
  4010c0:	55                   	push   %rbp
  4010c1:	53                   	push   %rbx
  4010c2:	41 89 fc             	mov    %edi,%r12d
  4010c5:	48 89 f3             	mov    %rsi,%rbx
  4010c8:	be dc 1c 40 00       	mov    $0x401cdc,%esi
  4010cd:	bf 0b 00 00 00       	mov    $0xb,%edi
  4010d2:	e8 e9 fb ff ff       	callq  400cc0 <signal@plt>
  4010d7:	be 8e 1c 40 00       	mov    $0x401c8e,%esi
  4010dc:	bf 07 00 00 00       	mov    $0x7,%edi
  4010e1:	e8 da fb ff ff       	callq  400cc0 <signal@plt>
  4010e6:	be 2a 1d 40 00       	mov    $0x401d2a,%esi
  4010eb:	bf 04 00 00 00       	mov    $0x4,%edi
  4010f0:	e8 cb fb ff ff       	callq  400cc0 <signal@plt>
  4010f5:	bd 1d 2e 40 00       	mov    $0x402e1d,%ebp
  4010fa:	83 3d e7 33 20 00 00 	cmpl   $0x0,0x2033e7(%rip)        # 6044e8 <is_checker>
  401101:	74 1e                	je     401121 <main+0x67>
  401103:	be 78 1d 40 00       	mov    $0x401d78,%esi
  401108:	bf 0e 00 00 00       	mov    $0xe,%edi
  40110d:	e8 ae fb ff ff       	callq  400cc0 <signal@plt>
  401112:	bf 05 00 00 00       	mov    $0x5,%edi
  401117:	e8 64 fb ff ff       	callq  400c80 <alarm@plt>
  40111c:	bd 22 2e 40 00       	mov    $0x402e22,%ebp
  401121:	48 8b 05 78 33 20 00 	mov    0x203378(%rip),%rax        # 6044a0 <stdin@@GLIBC_2.2.5>
  401128:	48 89 05 a1 33 20 00 	mov    %rax,0x2033a1(%rip)        # 6044d0 <infile>
  40112f:	41 bd 00 00 00 00    	mov    $0x0,%r13d
  401135:	41 be 00 00 00 00    	mov    $0x0,%r14d
  40113b:	e9 b9 00 00 00       	jmpq   4011f9 <main+0x13f>
  401140:	83 e8 61             	sub    $0x61,%eax
  401143:	3c 10                	cmp    $0x10,%al
  401145:	0f 87 93 00 00 00    	ja     4011de <main+0x124>
  40114b:	0f b6 c0             	movzbl %al,%eax
  40114e:	ff 24 c5 68 2e 40 00 	jmpq   *0x402e68(,%rax,8)
  401155:	48 8b 3b             	mov    (%rbx),%rdi
  401158:	e8 90 fd ff ff       	callq  400eed <usage>
  40115d:	be d5 30 40 00       	mov    $0x4030d5,%esi
  401162:	48 8b 3d 3f 33 20 00 	mov    0x20333f(%rip),%rdi        # 6044a8 <optarg@@GLIBC_2.2.5>
  401169:	e8 02 fc ff ff       	callq  400d70 <fopen@plt>
  40116e:	48 89 05 5b 33 20 00 	mov    %rax,0x20335b(%rip)        # 6044d0 <infile>
  401175:	48 85 c0             	test   %rax,%rax
  401178:	75 7f                	jne    4011f9 <main+0x13f>
  40117a:	48 8b 15 27 33 20 00 	mov    0x203327(%rip),%rdx        # 6044a8 <optarg@@GLIBC_2.2.5>
  401181:	be 2a 2e 40 00       	mov    $0x402e2a,%esi
  401186:	48 8b 3d 23 33 20 00 	mov    0x203323(%rip),%rdi        # 6044b0 <stderr@@GLIBC_2.2.5>
  40118d:	e8 4e fb ff ff       	callq  400ce0 <fprintf@plt>
  401192:	b8 01 00 00 00       	mov    $0x1,%eax
  401197:	e9 d6 00 00 00       	jmpq   401272 <main+0x1b8>
  40119c:	ba 10 00 00 00       	mov    $0x10,%edx
  4011a1:	be 00 00 00 00       	mov    $0x0,%esi
  4011a6:	48 8b 3d fb 32 20 00 	mov    0x2032fb(%rip),%rdi        # 6044a8 <optarg@@GLIBC_2.2.5>
  4011ad:	e8 de fb ff ff       	callq  400d90 <strtoul@plt>
  4011b2:	41 89 c6             	mov    %eax,%r14d
  4011b5:	eb 42                	jmp    4011f9 <main+0x13f>
  4011b7:	ba 0a 00 00 00       	mov    $0xa,%edx
  4011bc:	be 00 00 00 00       	mov    $0x0,%esi
  4011c1:	48 8b 3d e0 32 20 00 	mov    0x2032e0(%rip),%rdi        # 6044a8 <optarg@@GLIBC_2.2.5>
  4011c8:	e8 23 fb ff ff       	callq  400cf0 <strtol@plt>
  4011cd:	41 89 c5             	mov    %eax,%r13d
  4011d0:	eb 27                	jmp    4011f9 <main+0x13f>
  4011d2:	c7 05 ac 32 20 00 00 	movl   $0x0,0x2032ac(%rip)        # 604488 <notify>
  4011d9:	00 00 00 
  4011dc:	eb 1b                	jmp    4011f9 <main+0x13f>
  4011de:	40 0f be f6          	movsbl %sil,%esi
  4011e2:	bf 47 2e 40 00       	mov    $0x402e47,%edi
  4011e7:	b8 00 00 00 00       	mov    $0x0,%eax
  4011ec:	e8 6f fa ff ff       	callq  400c60 <printf@plt>
  4011f1:	48 8b 3b             	mov    (%rbx),%rdi
  4011f4:	e8 f4 fc ff ff       	callq  400eed <usage>
  4011f9:	48 89 ea             	mov    %rbp,%rdx
  4011fc:	48 89 de             	mov    %rbx,%rsi
  4011ff:	44 89 e7             	mov    %r12d,%edi
  401202:	e8 79 fb ff ff       	callq  400d80 <getopt@plt>
  401207:	89 c6                	mov    %eax,%esi
  401209:	3c ff                	cmp    $0xff,%al
  40120b:	0f 85 2f ff ff ff    	jne    401140 <main+0x86>
  401211:	be 00 00 00 00       	mov    $0x0,%esi
  401216:	44 89 ef             	mov    %r13d,%edi
  401219:	e8 4f fd ff ff       	callq  400f6d <initialize_target>
  40121e:	83 3d c3 32 20 00 00 	cmpl   $0x0,0x2032c3(%rip)        # 6044e8 <is_checker>
  401225:	74 25                	je     40124c <main+0x192>
  401227:	44 3b 35 b2 32 20 00 	cmp    0x2032b2(%rip),%r14d        # 6044e0 <authkey>
  40122e:	74 1c                	je     40124c <main+0x192>
  401230:	44 89 f6             	mov    %r14d,%esi
  401233:	bf 80 2d 40 00       	mov    $0x402d80,%edi
  401238:	b8 00 00 00 00       	mov    $0x0,%eax
  40123d:	e8 1e fa ff ff       	callq  400c60 <printf@plt>
  401242:	b8 00 00 00 00       	mov    $0x0,%eax
  401247:	e8 a8 06 00 00       	callq  4018f4 <check_fail>
  40124c:	8b 35 92 32 20 00    	mov    0x203292(%rip),%esi        # 6044e4 <cookie>
  401252:	bf 5a 2e 40 00       	mov    $0x402e5a,%edi
  401257:	b8 00 00 00 00       	mov    $0x0,%eax
  40125c:	e8 ff f9 ff ff       	callq  400c60 <printf@plt>
  401261:	48 8b 3d 18 32 20 00 	mov    0x203218(%rip),%rdi        # 604480 <buf_offset>
  401268:	e8 da 0b 00 00       	callq  401e47 <stable_launch>
  40126d:	b8 00 00 00 00       	mov    $0x0,%eax
  401272:	5b                   	pop    %rbx
  401273:	5d                   	pop    %rbp
  401274:	41 5c                	pop    %r12
  401276:	41 5d                	pop    %r13
  401278:	41 5e                	pop    %r14
  40127a:	c3                   	retq   

000000000040127b <scramble>:
  40127b:	b8 00 00 00 00       	mov    $0x0,%eax
  401280:	89 c2                	mov    %eax,%edx
  401282:	89 7c 94 d0          	mov    %edi,-0x30(%rsp,%rdx,4)
  401286:	83 c0 01             	add    $0x1,%eax
  401289:	81 c7 8f 1f 00 00    	add    $0x1f8f,%edi
  40128f:	83 f8 0a             	cmp    $0xa,%eax
  401292:	75 ec                	jne    401280 <scramble+0x5>
  401294:	8b 44 24 f0          	mov    -0x10(%rsp),%eax
  401298:	69 c0 f9 b4 00 00    	imul   $0xb4f9,%eax,%eax
  40129e:	89 44 24 f0          	mov    %eax,-0x10(%rsp)
  4012a2:	8b 44 24 f4          	mov    -0xc(%rsp),%eax
  4012a6:	69 c0 83 de 00 00    	imul   $0xde83,%eax,%eax
  4012ac:	89 44 24 f4          	mov    %eax,-0xc(%rsp)
  4012b0:	8b 44 24 d4          	mov    -0x2c(%rsp),%eax
  4012b4:	69 c0 ae 0b 00 00    	imul   $0xbae,%eax,%eax
  4012ba:	89 44 24 d4          	mov    %eax,-0x2c(%rsp)
  4012be:	8b 44 24 d8          	mov    -0x28(%rsp),%eax
  4012c2:	69 c0 59 b1 00 00    	imul   $0xb159,%eax,%eax
  4012c8:	89 44 24 d8          	mov    %eax,-0x28(%rsp)
  4012cc:	8b 44 24 f4          	mov    -0xc(%rsp),%eax
  4012d0:	69 c0 cb d1 00 00    	imul   $0xd1cb,%eax,%eax
  4012d6:	89 44 24 f4          	mov    %eax,-0xc(%rsp)
  4012da:	8b 44 24 dc          	mov    -0x24(%rsp),%eax
  4012de:	69 c0 38 0f 00 00    	imul   $0xf38,%eax,%eax
  4012e4:	89 44 24 dc          	mov    %eax,-0x24(%rsp)
  4012e8:	8b 44 24 e0          	mov    -0x20(%rsp),%eax
  4012ec:	69 c0 66 af 00 00    	imul   $0xaf66,%eax,%eax
  4012f2:	89 44 24 e0          	mov    %eax,-0x20(%rsp)
  4012f6:	8b 44 24 d4          	mov    -0x2c(%rsp),%eax
  4012fa:	69 c0 aa cd 00 00    	imul   $0xcdaa,%eax,%eax
  401300:	89 44 24 d4          	mov    %eax,-0x2c(%rsp)
  401304:	8b 44 24 e4          	mov    -0x1c(%rsp),%eax
  401308:	69 c0 64 97 00 00    	imul   $0x9764,%eax,%eax
  40130e:	89 44 24 e4          	mov    %eax,-0x1c(%rsp)
  401312:	8b 44 24 ec          	mov    -0x14(%rsp),%eax
  401316:	69 c0 24 dc 00 00    	imul   $0xdc24,%eax,%eax
  40131c:	89 44 24 ec          	mov    %eax,-0x14(%rsp)
  401320:	8b 44 24 f0          	mov    -0x10(%rsp),%eax
  401324:	69 c0 d1 15 00 00    	imul   $0x15d1,%eax,%eax
  40132a:	89 44 24 f0          	mov    %eax,-0x10(%rsp)
  40132e:	8b 44 24 d4          	mov    -0x2c(%rsp),%eax
  401332:	69 c0 bd 37 00 00    	imul   $0x37bd,%eax,%eax
  401338:	89 44 24 d4          	mov    %eax,-0x2c(%rsp)
  40133c:	8b 44 24 e0          	mov    -0x20(%rsp),%eax
  401340:	69 c0 bb 1e 00 00    	imul   $0x1ebb,%eax,%eax
  401346:	89 44 24 e0          	mov    %eax,-0x20(%rsp)
  40134a:	8b 44 24 ec          	mov    -0x14(%rsp),%eax
  40134e:	69 c0 9f 14 00 00    	imul   $0x149f,%eax,%eax
  401354:	89 44 24 ec          	mov    %eax,-0x14(%rsp)
  401358:	8b 44 24 dc          	mov    -0x24(%rsp),%eax
  40135c:	69 c0 e2 93 00 00    	imul   $0x93e2,%eax,%eax
  401362:	89 44 24 dc          	mov    %eax,-0x24(%rsp)
  401366:	8b 44 24 e4          	mov    -0x1c(%rsp),%eax
  40136a:	69 c0 be 03 00 00    	imul   $0x3be,%eax,%eax
  401370:	89 44 24 e4          	mov    %eax,-0x1c(%rsp)
  401374:	8b 44 24 f0          	mov    -0x10(%rsp),%eax
  401378:	69 c0 34 23 00 00    	imul   $0x2334,%eax,%eax
  40137e:	89 44 24 f0          	mov    %eax,-0x10(%rsp)
  401382:	8b 44 24 f0          	mov    -0x10(%rsp),%eax
  401386:	69 c0 4c 0d 00 00    	imul   $0xd4c,%eax,%eax
  40138c:	89 44 24 f0          	mov    %eax,-0x10(%rsp)
  401390:	8b 44 24 d4          	mov    -0x2c(%rsp),%eax
  401394:	69 c0 51 c8 00 00    	imul   $0xc851,%eax,%eax
  40139a:	89 44 24 d4          	mov    %eax,-0x2c(%rsp)
  40139e:	8b 44 24 d0          	mov    -0x30(%rsp),%eax
  4013a2:	69 c0 8a 0d 00 00    	imul   $0xd8a,%eax,%eax
  4013a8:	89 44 24 d0          	mov    %eax,-0x30(%rsp)
  4013ac:	8b 44 24 e8          	mov    -0x18(%rsp),%eax
  4013b0:	69 c0 1c 63 00 00    	imul   $0x631c,%eax,%eax
  4013b6:	89 44 24 e8          	mov    %eax,-0x18(%rsp)
  4013ba:	8b 44 24 d8          	mov    -0x28(%rsp),%eax
  4013be:	69 c0 47 1a 00 00    	imul   $0x1a47,%eax,%eax
  4013c4:	89 44 24 d8          	mov    %eax,-0x28(%rsp)
  4013c8:	8b 44 24 ec          	mov    -0x14(%rsp),%eax
  4013cc:	69 c0 6e 7c 00 00    	imul   $0x7c6e,%eax,%eax
  4013d2:	89 44 24 ec          	mov    %eax,-0x14(%rsp)
  4013d6:	8b 44 24 d4          	mov    -0x2c(%rsp),%eax
  4013da:	69 c0 95 84 00 00    	imul   $0x8495,%eax,%eax
  4013e0:	89 44 24 d4          	mov    %eax,-0x2c(%rsp)
  4013e4:	8b 44 24 e4          	mov    -0x1c(%rsp),%eax
  4013e8:	69 c0 8c ba 00 00    	imul   $0xba8c,%eax,%eax
  4013ee:	89 44 24 e4          	mov    %eax,-0x1c(%rsp)
  4013f2:	8b 44 24 d4          	mov    -0x2c(%rsp),%eax
  4013f6:	69 c0 dc 22 00 00    	imul   $0x22dc,%eax,%eax
  4013fc:	89 44 24 d4          	mov    %eax,-0x2c(%rsp)
  401400:	8b 44 24 f0          	mov    -0x10(%rsp),%eax
  401404:	69 c0 b8 94 00 00    	imul   $0x94b8,%eax,%eax
  40140a:	89 44 24 f0          	mov    %eax,-0x10(%rsp)
  40140e:	8b 44 24 e4          	mov    -0x1c(%rsp),%eax
  401412:	69 c0 34 bb 00 00    	imul   $0xbb34,%eax,%eax
  401418:	89 44 24 e4          	mov    %eax,-0x1c(%rsp)
  40141c:	8b 44 24 e0          	mov    -0x20(%rsp),%eax
  401420:	69 c0 a6 22 00 00    	imul   $0x22a6,%eax,%eax
  401426:	89 44 24 e0          	mov    %eax,-0x20(%rsp)
  40142a:	8b 44 24 d8          	mov    -0x28(%rsp),%eax
  40142e:	69 c0 a2 97 00 00    	imul   $0x97a2,%eax,%eax
  401434:	89 44 24 d8          	mov    %eax,-0x28(%rsp)
  401438:	8b 44 24 e4          	mov    -0x1c(%rsp),%eax
  40143c:	69 c0 fb 5e 00 00    	imul   $0x5efb,%eax,%eax
  401442:	89 44 24 e4          	mov    %eax,-0x1c(%rsp)
  401446:	8b 44 24 f4          	mov    -0xc(%rsp),%eax
  40144a:	69 c0 63 ff 00 00    	imul   $0xff63,%eax,%eax
  401450:	89 44 24 f4          	mov    %eax,-0xc(%rsp)
  401454:	8b 44 24 dc          	mov    -0x24(%rsp),%eax
  401458:	69 c0 a3 7d 00 00    	imul   $0x7da3,%eax,%eax
  40145e:	89 44 24 dc          	mov    %eax,-0x24(%rsp)
  401462:	8b 44 24 e8          	mov    -0x18(%rsp),%eax
  401466:	69 c0 11 b1 00 00    	imul   $0xb111,%eax,%eax
  40146c:	89 44 24 e8          	mov    %eax,-0x18(%rsp)
  401470:	8b 44 24 d8          	mov    -0x28(%rsp),%eax
  401474:	69 c0 54 cb 00 00    	imul   $0xcb54,%eax,%eax
  40147a:	89 44 24 d8          	mov    %eax,-0x28(%rsp)
  40147e:	8b 44 24 e8          	mov    -0x18(%rsp),%eax
  401482:	69 c0 10 e0 00 00    	imul   $0xe010,%eax,%eax
  401488:	89 44 24 e8          	mov    %eax,-0x18(%rsp)
  40148c:	8b 44 24 dc          	mov    -0x24(%rsp),%eax
  401490:	69 c0 5e db 00 00    	imul   $0xdb5e,%eax,%eax
  401496:	89 44 24 dc          	mov    %eax,-0x24(%rsp)
  40149a:	8b 44 24 d4          	mov    -0x2c(%rsp),%eax
  40149e:	69 c0 f2 40 00 00    	imul   $0x40f2,%eax,%eax
  4014a4:	89 44 24 d4          	mov    %eax,-0x2c(%rsp)
  4014a8:	8b 44 24 e4          	mov    -0x1c(%rsp),%eax
  4014ac:	69 c0 48 e2 00 00    	imul   $0xe248,%eax,%eax
  4014b2:	89 44 24 e4          	mov    %eax,-0x1c(%rsp)
  4014b6:	8b 44 24 e0          	mov    -0x20(%rsp),%eax
  4014ba:	69 c0 a0 6b 00 00    	imul   $0x6ba0,%eax,%eax
  4014c0:	89 44 24 e0          	mov    %eax,-0x20(%rsp)
  4014c4:	8b 44 24 e0          	mov    -0x20(%rsp),%eax
  4014c8:	69 c0 41 26 00 00    	imul   $0x2641,%eax,%eax
  4014ce:	89 44 24 e0          	mov    %eax,-0x20(%rsp)
  4014d2:	8b 44 24 f4          	mov    -0xc(%rsp),%eax
  4014d6:	69 c0 31 6d 00 00    	imul   $0x6d31,%eax,%eax
  4014dc:	89 44 24 f4          	mov    %eax,-0xc(%rsp)
  4014e0:	8b 44 24 dc          	mov    -0x24(%rsp),%eax
  4014e4:	69 c0 16 e9 00 00    	imul   $0xe916,%eax,%eax
  4014ea:	89 44 24 dc          	mov    %eax,-0x24(%rsp)
  4014ee:	8b 44 24 f0          	mov    -0x10(%rsp),%eax
  4014f2:	69 c0 6c 6e 00 00    	imul   $0x6e6c,%eax,%eax
  4014f8:	89 44 24 f0          	mov    %eax,-0x10(%rsp)
  4014fc:	8b 44 24 ec          	mov    -0x14(%rsp),%eax
  401500:	69 c0 39 f8 00 00    	imul   $0xf839,%eax,%eax
  401506:	89 44 24 ec          	mov    %eax,-0x14(%rsp)
  40150a:	8b 44 24 e4          	mov    -0x1c(%rsp),%eax
  40150e:	69 c0 44 c2 00 00    	imul   $0xc244,%eax,%eax
  401514:	89 44 24 e4          	mov    %eax,-0x1c(%rsp)
  401518:	8b 44 24 f4          	mov    -0xc(%rsp),%eax
  40151c:	69 c0 70 a1 00 00    	imul   $0xa170,%eax,%eax
  401522:	89 44 24 f4          	mov    %eax,-0xc(%rsp)
  401526:	8b 44 24 f4          	mov    -0xc(%rsp),%eax
  40152a:	69 c0 64 d9 00 00    	imul   $0xd964,%eax,%eax
  401530:	89 44 24 f4          	mov    %eax,-0xc(%rsp)
  401534:	8b 44 24 e8          	mov    -0x18(%rsp),%eax
  401538:	69 c0 56 ce 00 00    	imul   $0xce56,%eax,%eax
  40153e:	89 44 24 e8          	mov    %eax,-0x18(%rsp)
  401542:	8b 44 24 f0          	mov    -0x10(%rsp),%eax
  401546:	69 c0 07 65 00 00    	imul   $0x6507,%eax,%eax
  40154c:	89 44 24 f0          	mov    %eax,-0x10(%rsp)
  401550:	8b 44 24 e4          	mov    -0x1c(%rsp),%eax
  401554:	69 c0 12 49 00 00    	imul   $0x4912,%eax,%eax
  40155a:	89 44 24 e4          	mov    %eax,-0x1c(%rsp)
  40155e:	8b 44 24 f0          	mov    -0x10(%rsp),%eax
  401562:	69 c0 1a c8 00 00    	imul   $0xc81a,%eax,%eax
  401568:	89 44 24 f0          	mov    %eax,-0x10(%rsp)
  40156c:	8b 44 24 e0          	mov    -0x20(%rsp),%eax
  401570:	69 c0 6e 3f 00 00    	imul   $0x3f6e,%eax,%eax
  401576:	89 44 24 e0          	mov    %eax,-0x20(%rsp)
  40157a:	8b 44 24 d8          	mov    -0x28(%rsp),%eax
  40157e:	69 c0 3d 7c 00 00    	imul   $0x7c3d,%eax,%eax
  401584:	89 44 24 d8          	mov    %eax,-0x28(%rsp)
  401588:	8b 44 24 e4          	mov    -0x1c(%rsp),%eax
  40158c:	69 c0 94 ce 00 00    	imul   $0xce94,%eax,%eax
  401592:	89 44 24 e4          	mov    %eax,-0x1c(%rsp)
  401596:	8b 44 24 dc          	mov    -0x24(%rsp),%eax
  40159a:	69 c0 8a be 00 00    	imul   $0xbe8a,%eax,%eax
  4015a0:	89 44 24 dc          	mov    %eax,-0x24(%rsp)
  4015a4:	8b 44 24 ec          	mov    -0x14(%rsp),%eax
  4015a8:	69 c0 5a 76 00 00    	imul   $0x765a,%eax,%eax
  4015ae:	89 44 24 ec          	mov    %eax,-0x14(%rsp)
  4015b2:	8b 44 24 f0          	mov    -0x10(%rsp),%eax
  4015b6:	69 c0 ce af 00 00    	imul   $0xafce,%eax,%eax
  4015bc:	89 44 24 f0          	mov    %eax,-0x10(%rsp)
  4015c0:	8b 44 24 e8          	mov    -0x18(%rsp),%eax
  4015c4:	69 c0 20 54 00 00    	imul   $0x5420,%eax,%eax
  4015ca:	89 44 24 e8          	mov    %eax,-0x18(%rsp)
  4015ce:	8b 44 24 f0          	mov    -0x10(%rsp),%eax
  4015d2:	69 c0 2d 6b 00 00    	imul   $0x6b2d,%eax,%eax
  4015d8:	89 44 24 f0          	mov    %eax,-0x10(%rsp)
  4015dc:	8b 44 24 d4          	mov    -0x2c(%rsp),%eax
  4015e0:	69 c0 49 24 00 00    	imul   $0x2449,%eax,%eax
  4015e6:	89 44 24 d4          	mov    %eax,-0x2c(%rsp)
  4015ea:	8b 44 24 f4          	mov    -0xc(%rsp),%eax
  4015ee:	69 c0 8f a3 00 00    	imul   $0xa38f,%eax,%eax
  4015f4:	89 44 24 f4          	mov    %eax,-0xc(%rsp)
  4015f8:	8b 44 24 d4          	mov    -0x2c(%rsp),%eax
  4015fc:	69 c0 19 ef 00 00    	imul   $0xef19,%eax,%eax
  401602:	89 44 24 d4          	mov    %eax,-0x2c(%rsp)
  401606:	8b 44 24 e4          	mov    -0x1c(%rsp),%eax
  40160a:	69 c0 cc e4 00 00    	imul   $0xe4cc,%eax,%eax
  401610:	89 44 24 e4          	mov    %eax,-0x1c(%rsp)
  401614:	8b 44 24 e4          	mov    -0x1c(%rsp),%eax
  401618:	69 c0 69 07 00 00    	imul   $0x769,%eax,%eax
  40161e:	89 44 24 e4          	mov    %eax,-0x1c(%rsp)
  401622:	8b 44 24 ec          	mov    -0x14(%rsp),%eax
  401626:	69 c0 1a 57 00 00    	imul   $0x571a,%eax,%eax
  40162c:	89 44 24 ec          	mov    %eax,-0x14(%rsp)
  401630:	8b 44 24 d0          	mov    -0x30(%rsp),%eax
  401634:	69 c0 ea 8e 00 00    	imul   $0x8eea,%eax,%eax
  40163a:	89 44 24 d0          	mov    %eax,-0x30(%rsp)
  40163e:	8b 44 24 d8          	mov    -0x28(%rsp),%eax
  401642:	69 c0 ec 74 00 00    	imul   $0x74ec,%eax,%eax
  401648:	89 44 24 d8          	mov    %eax,-0x28(%rsp)
  40164c:	8b 44 24 f4          	mov    -0xc(%rsp),%eax
  401650:	69 c0 41 28 00 00    	imul   $0x2841,%eax,%eax
  401656:	89 44 24 f4          	mov    %eax,-0xc(%rsp)
  40165a:	8b 44 24 ec          	mov    -0x14(%rsp),%eax
  40165e:	69 c0 0e f0 00 00    	imul   $0xf00e,%eax,%eax
  401664:	89 44 24 ec          	mov    %eax,-0x14(%rsp)
  401668:	8b 44 24 e0          	mov    -0x20(%rsp),%eax
  40166c:	69 c0 07 d9 00 00    	imul   $0xd907,%eax,%eax
  401672:	89 44 24 e0          	mov    %eax,-0x20(%rsp)
  401676:	8b 44 24 f4          	mov    -0xc(%rsp),%eax
  40167a:	69 c0 aa eb 00 00    	imul   $0xebaa,%eax,%eax
  401680:	89 44 24 f4          	mov    %eax,-0xc(%rsp)
  401684:	8b 44 24 e0          	mov    -0x20(%rsp),%eax
  401688:	69 c0 53 da 00 00    	imul   $0xda53,%eax,%eax
  40168e:	89 44 24 e0          	mov    %eax,-0x20(%rsp)
  401692:	8b 44 24 d8          	mov    -0x28(%rsp),%eax
  401696:	69 c0 d1 ae 00 00    	imul   $0xaed1,%eax,%eax
  40169c:	89 44 24 d8          	mov    %eax,-0x28(%rsp)
  4016a0:	8b 44 24 e8          	mov    -0x18(%rsp),%eax
  4016a4:	69 c0 b2 b9 00 00    	imul   $0xb9b2,%eax,%eax
  4016aa:	89 44 24 e8          	mov    %eax,-0x18(%rsp)
  4016ae:	8b 44 24 f0          	mov    -0x10(%rsp),%eax
  4016b2:	69 c0 ce 7a 00 00    	imul   $0x7ace,%eax,%eax
  4016b8:	89 44 24 f0          	mov    %eax,-0x10(%rsp)
  4016bc:	8b 44 24 ec          	mov    -0x14(%rsp),%eax
  4016c0:	69 c0 70 47 00 00    	imul   $0x4770,%eax,%eax
  4016c6:	89 44 24 ec          	mov    %eax,-0x14(%rsp)
  4016ca:	8b 44 24 d4          	mov    -0x2c(%rsp),%eax
  4016ce:	69 c0 b5 a3 00 00    	imul   $0xa3b5,%eax,%eax
  4016d4:	89 44 24 d4          	mov    %eax,-0x2c(%rsp)
  4016d8:	8b 44 24 e8          	mov    -0x18(%rsp),%eax
  4016dc:	69 c0 50 9b 00 00    	imul   $0x9b50,%eax,%eax
  4016e2:	89 44 24 e8          	mov    %eax,-0x18(%rsp)
  4016e6:	8b 44 24 d0          	mov    -0x30(%rsp),%eax
  4016ea:	69 c0 f8 f3 00 00    	imul   $0xf3f8,%eax,%eax
  4016f0:	89 44 24 d0          	mov    %eax,-0x30(%rsp)
  4016f4:	8b 44 24 e8          	mov    -0x18(%rsp),%eax
  4016f8:	69 c0 55 d2 00 00    	imul   $0xd255,%eax,%eax
  4016fe:	89 44 24 e8          	mov    %eax,-0x18(%rsp)
  401702:	8b 44 24 e0          	mov    -0x20(%rsp),%eax
  401706:	69 c0 35 f3 00 00    	imul   $0xf335,%eax,%eax
  40170c:	89 44 24 e0          	mov    %eax,-0x20(%rsp)
  401710:	8b 44 24 ec          	mov    -0x14(%rsp),%eax
  401714:	69 c0 47 6a 00 00    	imul   $0x6a47,%eax,%eax
  40171a:	89 44 24 ec          	mov    %eax,-0x14(%rsp)
  40171e:	8b 44 24 e0          	mov    -0x20(%rsp),%eax
  401722:	69 c0 98 2f 00 00    	imul   $0x2f98,%eax,%eax
  401728:	89 44 24 e0          	mov    %eax,-0x20(%rsp)
  40172c:	8b 44 24 e4          	mov    -0x1c(%rsp),%eax
  401730:	69 c0 4b 59 00 00    	imul   $0x594b,%eax,%eax
  401736:	89 44 24 e4          	mov    %eax,-0x1c(%rsp)
  40173a:	ba 00 00 00 00       	mov    $0x0,%edx
  40173f:	b8 00 00 00 00       	mov    $0x0,%eax
  401744:	89 d1                	mov    %edx,%ecx
  401746:	8b 4c 8c d0          	mov    -0x30(%rsp,%rcx,4),%ecx
  40174a:	01 c8                	add    %ecx,%eax
  40174c:	83 c2 01             	add    $0x1,%edx
  40174f:	83 fa 0a             	cmp    $0xa,%edx
  401752:	75 f0                	jne    401744 <scramble+0x4c9>
  401754:	f3 c3                	repz retq 

0000000000401756 <getbuf>:
  401756:	48 83 ec 28          	sub    $0x28,%rsp
  40175a:	48 89 e7             	mov    %rsp,%rdi
  40175d:	e8 c1 01 00 00       	callq  401923 <Gets>
  401762:	b8 01 00 00 00       	mov    $0x1,%eax
  401767:	48 83 c4 28          	add    $0x28,%rsp
  40176b:	c3                   	retq   

000000000040176c <touch1>:
  40176c:	48 83 ec 08          	sub    $0x8,%rsp
  401770:	c7 05 62 2d 20 00 01 	movl   $0x1,0x202d62(%rip)        # 6044dc <vlevel>
  401777:	00 00 00 
  40177a:	bf 2b 2f 40 00       	mov    $0x402f2b,%edi
  40177f:	e8 ac f4 ff ff       	callq  400c30 <puts@plt>
  401784:	bf 01 00 00 00       	mov    $0x1,%edi
  401789:	e8 1c 04 00 00       	callq  401baa <validate>
  40178e:	bf 00 00 00 00       	mov    $0x0,%edi
  401793:	e8 28 f6 ff ff       	callq  400dc0 <exit@plt>

0000000000401798 <touch2>:
  401798:	48 83 ec 08          	sub    $0x8,%rsp
  40179c:	89 fe                	mov    %edi,%esi
  40179e:	c7 05 34 2d 20 00 02 	movl   $0x2,0x202d34(%rip)        # 6044dc <vlevel>
  4017a5:	00 00 00 
  4017a8:	3b 3d 36 2d 20 00    	cmp    0x202d36(%rip),%edi        # 6044e4 <cookie>
  4017ae:	75 1b                	jne    4017cb <touch2+0x33>
  4017b0:	bf 50 2f 40 00       	mov    $0x402f50,%edi
  4017b5:	b8 00 00 00 00       	mov    $0x0,%eax
  4017ba:	e8 a1 f4 ff ff       	callq  400c60 <printf@plt>
  4017bf:	bf 02 00 00 00       	mov    $0x2,%edi
  4017c4:	e8 e1 03 00 00       	callq  401baa <validate>
  4017c9:	eb 19                	jmp    4017e4 <touch2+0x4c>
  4017cb:	bf 78 2f 40 00       	mov    $0x402f78,%edi
  4017d0:	b8 00 00 00 00       	mov    $0x0,%eax
  4017d5:	e8 86 f4 ff ff       	callq  400c60 <printf@plt>
  4017da:	bf 02 00 00 00       	mov    $0x2,%edi
  4017df:	e8 82 04 00 00       	callq  401c66 <fail>
  4017e4:	bf 00 00 00 00       	mov    $0x0,%edi
  4017e9:	e8 d2 f5 ff ff       	callq  400dc0 <exit@plt>

00000000004017ee <hexmatch>:
  4017ee:	41 54                	push   %r12
  4017f0:	55                   	push   %rbp
  4017f1:	53                   	push   %rbx
  4017f2:	48 83 ec 70          	sub    $0x70,%rsp
  4017f6:	41 89 fc             	mov    %edi,%r12d
  4017f9:	48 89 f5             	mov    %rsi,%rbp
  4017fc:	e8 1f f5 ff ff       	callq  400d20 <random@plt>
  401801:	48 89 c1             	mov    %rax,%rcx
  401804:	48 ba 0b d7 a3 70 3d 	movabs $0xa3d70a3d70a3d70b,%rdx
  40180b:	0a d7 a3 
  40180e:	48 f7 ea             	imul   %rdx
  401811:	48 8d 04 0a          	lea    (%rdx,%rcx,1),%rax
  401815:	48 c1 f8 06          	sar    $0x6,%rax
  401819:	48 89 ce             	mov    %rcx,%rsi
  40181c:	48 c1 fe 3f          	sar    $0x3f,%rsi
  401820:	48 29 f0             	sub    %rsi,%rax
  401823:	48 8d 04 80          	lea    (%rax,%rax,4),%rax
  401827:	48 8d 04 80          	lea    (%rax,%rax,4),%rax
  40182b:	48 c1 e0 02          	shl    $0x2,%rax
  40182f:	48 29 c1             	sub    %rax,%rcx
  401832:	48 8d 1c 0c          	lea    (%rsp,%rcx,1),%rbx
  401836:	44 89 e2             	mov    %r12d,%edx
  401839:	be 48 2f 40 00       	mov    $0x402f48,%esi
  40183e:	48 89 df             	mov    %rbx,%rdi
  401841:	b8 00 00 00 00       	mov    $0x0,%eax
  401846:	e8 65 f5 ff ff       	callq  400db0 <sprintf@plt>
  40184b:	ba 09 00 00 00       	mov    $0x9,%edx
  401850:	48 89 de             	mov    %rbx,%rsi
  401853:	48 89 ef             	mov    %rbp,%rdi
  401856:	e8 b5 f3 ff ff       	callq  400c10 <strncmp@plt>
  40185b:	85 c0                	test   %eax,%eax
  40185d:	0f 94 c0             	sete   %al
  401860:	0f b6 c0             	movzbl %al,%eax
  401863:	48 83 c4 70          	add    $0x70,%rsp
  401867:	5b                   	pop    %rbx
  401868:	5d                   	pop    %rbp
  401869:	41 5c                	pop    %r12
  40186b:	c3                   	retq   

000000000040186c <touch3>:
  40186c:	53                   	push   %rbx
  40186d:	48 89 fb             	mov    %rdi,%rbx
  401870:	c7 05 62 2c 20 00 03 	movl   $0x3,0x202c62(%rip)        # 6044dc <vlevel>
  401877:	00 00 00 
  40187a:	48 89 fe             	mov    %rdi,%rsi
  40187d:	8b 3d 61 2c 20 00    	mov    0x202c61(%rip),%edi        # 6044e4 <cookie>
  401883:	e8 66 ff ff ff       	callq  4017ee <hexmatch>
  401888:	85 c0                	test   %eax,%eax
  40188a:	74 1e                	je     4018aa <touch3+0x3e>
  40188c:	48 89 de             	mov    %rbx,%rsi
  40188f:	bf a0 2f 40 00       	mov    $0x402fa0,%edi
  401894:	b8 00 00 00 00       	mov    $0x0,%eax
  401899:	e8 c2 f3 ff ff       	callq  400c60 <printf@plt>
  40189e:	bf 03 00 00 00       	mov    $0x3,%edi
  4018a3:	e8 02 03 00 00       	callq  401baa <validate>
  4018a8:	eb 1c                	jmp    4018c6 <touch3+0x5a>
  4018aa:	48 89 de             	mov    %rbx,%rsi
  4018ad:	bf c8 2f 40 00       	mov    $0x402fc8,%edi
  4018b2:	b8 00 00 00 00       	mov    $0x0,%eax
  4018b7:	e8 a4 f3 ff ff       	callq  400c60 <printf@plt>
  4018bc:	bf 03 00 00 00       	mov    $0x3,%edi
  4018c1:	e8 a0 03 00 00       	callq  401c66 <fail>
  4018c6:	bf 00 00 00 00       	mov    $0x0,%edi
  4018cb:	e8 f0 f4 ff ff       	callq  400dc0 <exit@plt>

00000000004018d0 <test>:
  4018d0:	48 83 ec 08          	sub    $0x8,%rsp
  4018d4:	b8 00 00 00 00       	mov    $0x0,%eax
  4018d9:	e8 78 fe ff ff       	callq  401756 <getbuf>
  4018de:	89 c6                	mov    %eax,%esi
  4018e0:	bf f0 2f 40 00       	mov    $0x402ff0,%edi
  4018e5:	b8 00 00 00 00       	mov    $0x0,%eax
  4018ea:	e8 71 f3 ff ff       	callq  400c60 <printf@plt>
  4018ef:	48 83 c4 08          	add    $0x8,%rsp
  4018f3:	c3                   	retq   

00000000004018f4 <check_fail>:
  4018f4:	48 83 ec 08          	sub    $0x8,%rsp
  4018f8:	0f be 35 09 38 20 00 	movsbl 0x203809(%rip),%esi        # 605108 <target_prefix>
  4018ff:	b9 00 45 60 00       	mov    $0x604500,%ecx
  401904:	8b 15 ce 2b 20 00    	mov    0x202bce(%rip),%edx        # 6044d8 <check_level>
  40190a:	bf 13 30 40 00       	mov    $0x403013,%edi
  40190f:	b8 00 00 00 00       	mov    $0x0,%eax
  401914:	e8 47 f3 ff ff       	callq  400c60 <printf@plt>
  401919:	bf 01 00 00 00       	mov    $0x1,%edi
  40191e:	e8 9d f4 ff ff       	callq  400dc0 <exit@plt>

0000000000401923 <Gets>:
  401923:	55                   	push   %rbp
  401924:	53                   	push   %rbx
  401925:	48 83 ec 08          	sub    $0x8,%rsp
  401929:	48 89 fd             	mov    %rdi,%rbp
  40192c:	c7 05 ce 37 20 00 00 	movl   $0x0,0x2037ce(%rip)        # 605104 <gets_cnt>
  401933:	00 00 00 
  401936:	48 89 fb             	mov    %rdi,%rbx
  401939:	eb 5f                	jmp    40199a <Gets+0x77>
  40193b:	48 83 c3 01          	add    $0x1,%rbx
  40193f:	88 43 ff             	mov    %al,-0x1(%rbx)
  401942:	8b 0d bc 37 20 00    	mov    0x2037bc(%rip),%ecx        # 605104 <gets_cnt>
  401948:	81 f9 ff 03 00 00    	cmp    $0x3ff,%ecx
  40194e:	7f 4a                	jg     40199a <Gets+0x77>
  401950:	0f b6 d0             	movzbl %al,%edx
  401953:	8d 34 49             	lea    (%rcx,%rcx,2),%esi
  401956:	48 63 c6             	movslq %esi,%rax
  401959:	89 d7                	mov    %edx,%edi
  40195b:	c1 ef 04             	shr    $0x4,%edi
  40195e:	48 63 ff             	movslq %edi,%rdi
  401961:	0f b6 bf 10 33 40 00 	movzbl 0x403310(%rdi),%edi
  401968:	40 88 b8 00 45 60 00 	mov    %dil,0x604500(%rax)
  40196f:	8d 46 01             	lea    0x1(%rsi),%eax
  401972:	48 98                	cltq   
  401974:	83 e2 0f             	and    $0xf,%edx
  401977:	0f b6 92 10 33 40 00 	movzbl 0x403310(%rdx),%edx
  40197e:	88 90 00 45 60 00    	mov    %dl,0x604500(%rax)
  401984:	83 c6 02             	add    $0x2,%esi
  401987:	48 63 f6             	movslq %esi,%rsi
  40198a:	c6 86 00 45 60 00 20 	movb   $0x20,0x604500(%rsi)
  401991:	83 c1 01             	add    $0x1,%ecx
  401994:	89 0d 6a 37 20 00    	mov    %ecx,0x20376a(%rip)        # 605104 <gets_cnt>
  40199a:	48 8b 3d 2f 2b 20 00 	mov    0x202b2f(%rip),%rdi        # 6044d0 <infile>
  4019a1:	e8 8a f3 ff ff       	callq  400d30 <_IO_getc@plt>
  4019a6:	83 f8 ff             	cmp    $0xffffffff,%eax
  4019a9:	74 05                	je     4019b0 <Gets+0x8d>
  4019ab:	83 f8 0a             	cmp    $0xa,%eax
  4019ae:	75 8b                	jne    40193b <Gets+0x18>
  4019b0:	c6 03 00             	movb   $0x0,(%rbx)
  4019b3:	8b 05 4b 37 20 00    	mov    0x20374b(%rip),%eax        # 605104 <gets_cnt>
  4019b9:	8d 04 40             	lea    (%rax,%rax,2),%eax
  4019bc:	48 98                	cltq   
  4019be:	c6 80 00 45 60 00 00 	movb   $0x0,0x604500(%rax)
  4019c5:	48 89 e8             	mov    %rbp,%rax
  4019c8:	48 83 c4 08          	add    $0x8,%rsp
  4019cc:	5b                   	pop    %rbx
  4019cd:	5d                   	pop    %rbp
  4019ce:	c3                   	retq   

00000000004019cf <notify_server>:
  4019cf:	83 3d 12 2b 20 00 00 	cmpl   $0x0,0x202b12(%rip)        # 6044e8 <is_checker>
  4019d6:	0f 85 cc 01 00 00    	jne    401ba8 <notify_server+0x1d9>
  4019dc:	48 81 ec 18 40 00 00 	sub    $0x4018,%rsp
  4019e3:	8b 05 1b 37 20 00    	mov    0x20371b(%rip),%eax        # 605104 <gets_cnt>
  4019e9:	83 c0 64             	add    $0x64,%eax
  4019ec:	3d 00 20 00 00       	cmp    $0x2000,%eax
  4019f1:	7e 19                	jle    401a0c <notify_server+0x3d>
  4019f3:	bf 48 31 40 00       	mov    $0x403148,%edi
  4019f8:	b8 00 00 00 00       	mov    $0x0,%eax
  4019fd:	e8 5e f2 ff ff       	callq  400c60 <printf@plt>
  401a02:	bf 01 00 00 00       	mov    $0x1,%edi
  401a07:	e8 b4 f3 ff ff       	callq  400dc0 <exit@plt>
  401a0c:	44 0f be 0d f4 36 20 	movsbl 0x2036f4(%rip),%r9d        # 605108 <target_prefix>
  401a13:	00 
  401a14:	83 3d 6d 2a 20 00 00 	cmpl   $0x0,0x202a6d(%rip)        # 604488 <notify>
  401a1b:	b8 ff ff ff ff       	mov    $0xffffffff,%eax
  401a20:	0f 45 05 b9 2a 20 00 	cmovne 0x202ab9(%rip),%eax        # 6044e0 <authkey>
  401a27:	41 89 c0             	mov    %eax,%r8d
  401a2a:	85 ff                	test   %edi,%edi
  401a2c:	0f 85 f0 00 00 00    	jne    401b22 <notify_server+0x153>
  401a32:	e9 a9 00 00 00       	jmpq   401ae0 <notify_server+0x111>
  401a37:	48 8d 74 24 10       	lea    0x10(%rsp),%rsi
  401a3c:	bf 33 30 40 00       	mov    $0x403033,%edi
  401a41:	b8 00 00 00 00       	mov    $0x0,%eax
  401a46:	e8 15 f2 ff ff       	callq  400c60 <printf@plt>
  401a4b:	bf 01 00 00 00       	mov    $0x1,%edi
  401a50:	e8 6b f3 ff ff       	callq  400dc0 <exit@plt>
  401a55:	bf 78 31 40 00       	mov    $0x403178,%edi
  401a5a:	e8 d1 f1 ff ff       	callq  400c30 <puts@plt>
  401a5f:	bf 3f 30 40 00       	mov    $0x40303f,%edi
  401a64:	e8 c7 f1 ff ff       	callq  400c30 <puts@plt>
  401a69:	e9 33 01 00 00       	jmpq   401ba1 <notify_server+0x1d2>
  401a6e:	be 29 30 40 00       	mov    $0x403029,%esi
  401a73:	bf b0 31 40 00       	mov    $0x4031b0,%edi
  401a78:	b8 00 00 00 00       	mov    $0x0,%eax
  401a7d:	e8 de f1 ff ff       	callq  400c60 <printf@plt>
  401a82:	48 8b 35 b7 26 20 00 	mov    0x2026b7(%rip),%rsi        # 604140 <user_id>
  401a89:	bf 49 30 40 00       	mov    $0x403049,%edi
  401a8e:	b8 00 00 00 00       	mov    $0x0,%eax
  401a93:	e8 c8 f1 ff ff       	callq  400c60 <printf@plt>
  401a98:	48 8b 35 b9 26 20 00 	mov    0x2026b9(%rip),%rsi        # 604158 <course>
  401a9f:	bf 56 30 40 00       	mov    $0x403056,%edi
  401aa4:	b8 00 00 00 00       	mov    $0x0,%eax
  401aa9:	e8 b2 f1 ff ff       	callq  400c60 <printf@plt>
  401aae:	48 8b 35 9b 26 20 00 	mov    0x20269b(%rip),%rsi        # 604150 <lab>
  401ab5:	bf 62 30 40 00       	mov    $0x403062,%edi
  401aba:	b8 00 00 00 00       	mov    $0x0,%eax
  401abf:	e8 9c f1 ff ff       	callq  400c60 <printf@plt>
  401ac4:	48 8d b4 24 10 20 00 	lea    0x2010(%rsp),%rsi
  401acb:	00 
  401acc:	bf 6b 30 40 00       	mov    $0x40306b,%edi
  401ad1:	b8 00 00 00 00       	mov    $0x0,%eax
  401ad6:	e8 85 f1 ff ff       	callq  400c60 <printf@plt>
  401adb:	e9 c1 00 00 00       	jmpq   401ba1 <notify_server+0x1d2>
  401ae0:	48 c7 44 24 08 00 45 	movq   $0x604500,0x8(%rsp)
  401ae7:	60 00 
  401ae9:	89 34 24             	mov    %esi,(%rsp)
  401aec:	b9 2e 30 40 00       	mov    $0x40302e,%ecx
  401af1:	8b 15 51 26 20 00    	mov    0x202651(%rip),%edx        # 604148 <target_id>
  401af7:	be 77 30 40 00       	mov    $0x403077,%esi
  401afc:	48 8d bc 24 10 20 00 	lea    0x2010(%rsp),%rdi
  401b03:	00 
  401b04:	b8 00 00 00 00       	mov    $0x0,%eax
  401b09:	e8 a2 f2 ff ff       	callq  400db0 <sprintf@plt>
  401b0e:	be 2e 30 40 00       	mov    $0x40302e,%esi
  401b13:	83 3d 6e 29 20 00 00 	cmpl   $0x0,0x20296e(%rip)        # 604488 <notify>
  401b1a:	0f 84 53 ff ff ff    	je     401a73 <notify_server+0xa4>
  401b20:	eb 75                	jmp    401b97 <notify_server+0x1c8>
  401b22:	48 c7 44 24 08 00 45 	movq   $0x604500,0x8(%rsp)
  401b29:	60 00 
  401b2b:	89 34 24             	mov    %esi,(%rsp)
  401b2e:	b9 29 30 40 00       	mov    $0x403029,%ecx
  401b33:	8b 15 0f 26 20 00    	mov    0x20260f(%rip),%edx        # 604148 <target_id>
  401b39:	be 77 30 40 00       	mov    $0x403077,%esi
  401b3e:	48 8d bc 24 10 20 00 	lea    0x2010(%rsp),%rdi
  401b45:	00 
  401b46:	b8 00 00 00 00       	mov    $0x0,%eax
  401b4b:	e8 60 f2 ff ff       	callq  400db0 <sprintf@plt>
  401b50:	83 3d 31 29 20 00 00 	cmpl   $0x0,0x202931(%rip)        # 604488 <notify>
  401b57:	0f 84 11 ff ff ff    	je     401a6e <notify_server+0x9f>
  401b5d:	4c 8d 4c 24 10       	lea    0x10(%rsp),%r9
  401b62:	41 b8 00 00 00 00    	mov    $0x0,%r8d
  401b68:	48 8d 8c 24 10 20 00 	lea    0x2010(%rsp),%rcx
  401b6f:	00 
  401b70:	48 8b 15 d9 25 20 00 	mov    0x2025d9(%rip),%rdx        # 604150 <lab>
  401b77:	48 8b 35 da 25 20 00 	mov    0x2025da(%rip),%rsi        # 604158 <course>
  401b7e:	48 8b 3d bb 25 20 00 	mov    0x2025bb(%rip),%rdi        # 604140 <user_id>
  401b85:	e8 09 0f 00 00       	callq  402a93 <driver_post>
  401b8a:	85 c0                	test   %eax,%eax
  401b8c:	0f 89 c3 fe ff ff    	jns    401a55 <notify_server+0x86>
  401b92:	e9 a0 fe ff ff       	jmpq   401a37 <notify_server+0x68>
  401b97:	bf 93 30 40 00       	mov    $0x403093,%edi
  401b9c:	e8 8f f0 ff ff       	callq  400c30 <puts@plt>
  401ba1:	48 81 c4 18 40 00 00 	add    $0x4018,%rsp
  401ba8:	f3 c3                	repz retq 

0000000000401baa <validate>:
  401baa:	55                   	push   %rbp
  401bab:	53                   	push   %rbx
  401bac:	48 83 ec 08          	sub    $0x8,%rsp
  401bb0:	89 fb                	mov    %edi,%ebx
  401bb2:	83 3d 2f 29 20 00 00 	cmpl   $0x0,0x20292f(%rip)        # 6044e8 <is_checker>
  401bb9:	74 5e                	je     401c19 <validate+0x6f>
  401bbb:	8b 15 1b 29 20 00    	mov    0x20291b(%rip),%edx        # 6044dc <vlevel>
  401bc1:	39 fa                	cmp    %edi,%edx
  401bc3:	74 14                	je     401bd9 <validate+0x2f>
  401bc5:	bf 9a 30 40 00       	mov    $0x40309a,%edi
  401bca:	e8 61 f0 ff ff       	callq  400c30 <puts@plt>
  401bcf:	b8 00 00 00 00       	mov    $0x0,%eax
  401bd4:	e8 1b fd ff ff       	callq  4018f4 <check_fail>
  401bd9:	8b 35 f9 28 20 00    	mov    0x2028f9(%rip),%esi        # 6044d8 <check_level>
  401bdf:	39 f2                	cmp    %esi,%edx
  401be1:	74 19                	je     401bfc <validate+0x52>
  401be3:	bf d8 31 40 00       	mov    $0x4031d8,%edi
  401be8:	b8 00 00 00 00       	mov    $0x0,%eax
  401bed:	e8 6e f0 ff ff       	callq  400c60 <printf@plt>
  401bf2:	b8 00 00 00 00       	mov    $0x0,%eax
  401bf7:	e8 f8 fc ff ff       	callq  4018f4 <check_fail>
  401bfc:	0f be 35 05 35 20 00 	movsbl 0x203505(%rip),%esi        # 605108 <target_prefix>
  401c03:	b9 00 45 60 00       	mov    $0x604500,%ecx
  401c08:	bf b8 30 40 00       	mov    $0x4030b8,%edi
  401c0d:	b8 00 00 00 00       	mov    $0x0,%eax
  401c12:	e8 49 f0 ff ff       	callq  400c60 <printf@plt>
  401c17:	eb 46                	jmp    401c5f <validate+0xb5>
  401c19:	8b 2d bd 28 20 00    	mov    0x2028bd(%rip),%ebp        # 6044dc <vlevel>
  401c1f:	39 fd                	cmp    %edi,%ebp
  401c21:	74 18                	je     401c3b <validate+0x91>
  401c23:	bf 9a 30 40 00       	mov    $0x40309a,%edi
  401c28:	e8 03 f0 ff ff       	callq  400c30 <puts@plt>
  401c2d:	89 de                	mov    %ebx,%esi
  401c2f:	bf 00 00 00 00       	mov    $0x0,%edi
  401c34:	e8 96 fd ff ff       	callq  4019cf <notify_server>
  401c39:	eb 24                	jmp    401c5f <validate+0xb5>
  401c3b:	0f be 15 c6 34 20 00 	movsbl 0x2034c6(%rip),%edx        # 605108 <target_prefix>
  401c42:	89 ee                	mov    %ebp,%esi
  401c44:	bf 00 32 40 00       	mov    $0x403200,%edi
  401c49:	b8 00 00 00 00       	mov    $0x0,%eax
  401c4e:	e8 0d f0 ff ff       	callq  400c60 <printf@plt>
  401c53:	89 ee                	mov    %ebp,%esi
  401c55:	bf 01 00 00 00       	mov    $0x1,%edi
  401c5a:	e8 70 fd ff ff       	callq  4019cf <notify_server>
  401c5f:	48 83 c4 08          	add    $0x8,%rsp
  401c63:	5b                   	pop    %rbx
  401c64:	5d                   	pop    %rbp
  401c65:	c3                   	retq   

0000000000401c66 <fail>:
  401c66:	48 83 ec 08          	sub    $0x8,%rsp
  401c6a:	83 3d 77 28 20 00 00 	cmpl   $0x0,0x202877(%rip)        # 6044e8 <is_checker>
  401c71:	74 0a                	je     401c7d <fail+0x17>
  401c73:	b8 00 00 00 00       	mov    $0x0,%eax
  401c78:	e8 77 fc ff ff       	callq  4018f4 <check_fail>
  401c7d:	89 fe                	mov    %edi,%esi
  401c7f:	bf 00 00 00 00       	mov    $0x0,%edi
  401c84:	e8 46 fd ff ff       	callq  4019cf <notify_server>
  401c89:	48 83 c4 08          	add    $0x8,%rsp
  401c8d:	c3                   	retq   

0000000000401c8e <bushandler>:
  401c8e:	48 83 ec 08          	sub    $0x8,%rsp
  401c92:	83 3d 4f 28 20 00 00 	cmpl   $0x0,0x20284f(%rip)        # 6044e8 <is_checker>
  401c99:	74 14                	je     401caf <bushandler+0x21>
  401c9b:	bf cd 30 40 00       	mov    $0x4030cd,%edi
  401ca0:	e8 8b ef ff ff       	callq  400c30 <puts@plt>
  401ca5:	b8 00 00 00 00       	mov    $0x0,%eax
  401caa:	e8 45 fc ff ff       	callq  4018f4 <check_fail>
  401caf:	bf 38 32 40 00       	mov    $0x403238,%edi
  401cb4:	e8 77 ef ff ff       	callq  400c30 <puts@plt>
  401cb9:	bf d7 30 40 00       	mov    $0x4030d7,%edi
  401cbe:	e8 6d ef ff ff       	callq  400c30 <puts@plt>
  401cc3:	be 00 00 00 00       	mov    $0x0,%esi
  401cc8:	bf 00 00 00 00       	mov    $0x0,%edi
  401ccd:	e8 fd fc ff ff       	callq  4019cf <notify_server>
  401cd2:	bf 01 00 00 00       	mov    $0x1,%edi
  401cd7:	e8 e4 f0 ff ff       	callq  400dc0 <exit@plt>

0000000000401cdc <seghandler>:
  401cdc:	48 83 ec 08          	sub    $0x8,%rsp
  401ce0:	83 3d 01 28 20 00 00 	cmpl   $0x0,0x202801(%rip)        # 6044e8 <is_checker>
  401ce7:	74 14                	je     401cfd <seghandler+0x21>
  401ce9:	bf ed 30 40 00       	mov    $0x4030ed,%edi
  401cee:	e8 3d ef ff ff       	callq  400c30 <puts@plt>
  401cf3:	b8 00 00 00 00       	mov    $0x0,%eax
  401cf8:	e8 f7 fb ff ff       	callq  4018f4 <check_fail>
  401cfd:	bf 58 32 40 00       	mov    $0x403258,%edi
  401d02:	e8 29 ef ff ff       	callq  400c30 <puts@plt>
  401d07:	bf d7 30 40 00       	mov    $0x4030d7,%edi
  401d0c:	e8 1f ef ff ff       	callq  400c30 <puts@plt>
  401d11:	be 00 00 00 00       	mov    $0x0,%esi
  401d16:	bf 00 00 00 00       	mov    $0x0,%edi
  401d1b:	e8 af fc ff ff       	callq  4019cf <notify_server>
  401d20:	bf 01 00 00 00       	mov    $0x1,%edi
  401d25:	e8 96 f0 ff ff       	callq  400dc0 <exit@plt>

0000000000401d2a <illegalhandler>:
  401d2a:	48 83 ec 08          	sub    $0x8,%rsp
  401d2e:	83 3d b3 27 20 00 00 	cmpl   $0x0,0x2027b3(%rip)        # 6044e8 <is_checker>
  401d35:	74 14                	je     401d4b <illegalhandler+0x21>
  401d37:	bf 00 31 40 00       	mov    $0x403100,%edi
  401d3c:	e8 ef ee ff ff       	callq  400c30 <puts@plt>
  401d41:	b8 00 00 00 00       	mov    $0x0,%eax
  401d46:	e8 a9 fb ff ff       	callq  4018f4 <check_fail>
  401d4b:	bf 80 32 40 00       	mov    $0x403280,%edi
  401d50:	e8 db ee ff ff       	callq  400c30 <puts@plt>
  401d55:	bf d7 30 40 00       	mov    $0x4030d7,%edi
  401d5a:	e8 d1 ee ff ff       	callq  400c30 <puts@plt>
  401d5f:	be 00 00 00 00       	mov    $0x0,%esi
  401d64:	bf 00 00 00 00       	mov    $0x0,%edi
  401d69:	e8 61 fc ff ff       	callq  4019cf <notify_server>
  401d6e:	bf 01 00 00 00       	mov    $0x1,%edi
  401d73:	e8 48 f0 ff ff       	callq  400dc0 <exit@plt>

0000000000401d78 <sigalrmhandler>:
  401d78:	48 83 ec 08          	sub    $0x8,%rsp
  401d7c:	83 3d 65 27 20 00 00 	cmpl   $0x0,0x202765(%rip)        # 6044e8 <is_checker>
  401d83:	74 14                	je     401d99 <sigalrmhandler+0x21>
  401d85:	bf 14 31 40 00       	mov    $0x403114,%edi
  401d8a:	e8 a1 ee ff ff       	callq  400c30 <puts@plt>
  401d8f:	b8 00 00 00 00       	mov    $0x0,%eax
  401d94:	e8 5b fb ff ff       	callq  4018f4 <check_fail>
  401d99:	be 05 00 00 00       	mov    $0x5,%esi
  401d9e:	bf b0 32 40 00       	mov    $0x4032b0,%edi
  401da3:	b8 00 00 00 00       	mov    $0x0,%eax
  401da8:	e8 b3 ee ff ff       	callq  400c60 <printf@plt>
  401dad:	be 00 00 00 00       	mov    $0x0,%esi
  401db2:	bf 00 00 00 00       	mov    $0x0,%edi
  401db7:	e8 13 fc ff ff       	callq  4019cf <notify_server>
  401dbc:	bf 01 00 00 00       	mov    $0x1,%edi
  401dc1:	e8 fa ef ff ff       	callq  400dc0 <exit@plt>

0000000000401dc6 <launch>:
  401dc6:	55                   	push   %rbp
  401dc7:	48 89 e5             	mov    %rsp,%rbp
  401dca:	48 89 fa             	mov    %rdi,%rdx
  401dcd:	48 8d 47 1e          	lea    0x1e(%rdi),%rax
  401dd1:	48 83 e0 f0          	and    $0xfffffffffffffff0,%rax
  401dd5:	48 29 c4             	sub    %rax,%rsp
  401dd8:	48 8d 7c 24 0f       	lea    0xf(%rsp),%rdi
  401ddd:	48 83 e7 f0          	and    $0xfffffffffffffff0,%rdi
  401de1:	be f4 00 00 00       	mov    $0xf4,%esi
  401de6:	e8 85 ee ff ff       	callq  400c70 <memset@plt>
  401deb:	48 8b 05 ae 26 20 00 	mov    0x2026ae(%rip),%rax        # 6044a0 <stdin@@GLIBC_2.2.5>
  401df2:	48 39 05 d7 26 20 00 	cmp    %rax,0x2026d7(%rip)        # 6044d0 <infile>
  401df9:	75 0f                	jne    401e0a <launch+0x44>
  401dfb:	bf 1c 31 40 00       	mov    $0x40311c,%edi
  401e00:	b8 00 00 00 00       	mov    $0x0,%eax
  401e05:	e8 56 ee ff ff       	callq  400c60 <printf@plt>
  401e0a:	c7 05 c8 26 20 00 00 	movl   $0x0,0x2026c8(%rip)        # 6044dc <vlevel>
  401e11:	00 00 00 
  401e14:	b8 00 00 00 00       	mov    $0x0,%eax
  401e19:	e8 b2 fa ff ff       	callq  4018d0 <test>
  401e1e:	83 3d c3 26 20 00 00 	cmpl   $0x0,0x2026c3(%rip)        # 6044e8 <is_checker>
  401e25:	74 14                	je     401e3b <launch+0x75>
  401e27:	bf 29 31 40 00       	mov    $0x403129,%edi
  401e2c:	e8 ff ed ff ff       	callq  400c30 <puts@plt>
  401e31:	b8 00 00 00 00       	mov    $0x0,%eax
  401e36:	e8 b9 fa ff ff       	callq  4018f4 <check_fail>
  401e3b:	bf 34 31 40 00       	mov    $0x403134,%edi
  401e40:	e8 eb ed ff ff       	callq  400c30 <puts@plt>
  401e45:	c9                   	leaveq 
  401e46:	c3                   	retq   

0000000000401e47 <stable_launch>:
  401e47:	48 83 ec 08          	sub    $0x8,%rsp
  401e4b:	48 89 3d 76 26 20 00 	mov    %rdi,0x202676(%rip)        # 6044c8 <global_offset>
  401e52:	41 b9 00 00 00 00    	mov    $0x0,%r9d
  401e58:	41 b8 00 00 00 00    	mov    $0x0,%r8d
  401e5e:	b9 32 01 00 00       	mov    $0x132,%ecx
  401e63:	ba 07 00 00 00       	mov    $0x7,%edx
  401e68:	be 00 00 10 00       	mov    $0x100000,%esi
  401e6d:	bf 00 60 58 55       	mov    $0x55586000,%edi
  401e72:	e8 d9 ed ff ff       	callq  400c50 <mmap@plt>
  401e77:	48 3d 00 60 58 55    	cmp    $0x55586000,%rax
  401e7d:	74 32                	je     401eb1 <stable_launch+0x6a>
  401e7f:	be 00 00 10 00       	mov    $0x100000,%esi
  401e84:	48 89 c7             	mov    %rax,%rdi
  401e87:	e8 c4 ee ff ff       	callq  400d50 <munmap@plt>
  401e8c:	ba 00 60 58 55       	mov    $0x55586000,%edx
  401e91:	be e8 32 40 00       	mov    $0x4032e8,%esi
  401e96:	48 8b 3d 13 26 20 00 	mov    0x202613(%rip),%rdi        # 6044b0 <stderr@@GLIBC_2.2.5>
  401e9d:	b8 00 00 00 00       	mov    $0x0,%eax
  401ea2:	e8 39 ee ff ff       	callq  400ce0 <fprintf@plt>
  401ea7:	bf 01 00 00 00       	mov    $0x1,%edi
  401eac:	e8 0f ef ff ff       	callq  400dc0 <exit@plt>
  401eb1:	48 c7 05 54 32 20 00 	movq   $0x55685ff8,0x203254(%rip)        # 605110 <stack_top>
  401eb8:	f8 5f 68 55 
  401ebc:	ba f8 5f 68 55       	mov    $0x55685ff8,%edx
  401ec1:	48 89 e0             	mov    %rsp,%rax
  401ec4:	48 89 d4             	mov    %rdx,%rsp
  401ec7:	48 89 c2             	mov    %rax,%rdx
  401eca:	48 89 15 ef 25 20 00 	mov    %rdx,0x2025ef(%rip)        # 6044c0 <global_save_stack>
  401ed1:	48 8b 3d f0 25 20 00 	mov    0x2025f0(%rip),%rdi        # 6044c8 <global_offset>
  401ed8:	e8 e9 fe ff ff       	callq  401dc6 <launch>
  401edd:	48 8b 05 dc 25 20 00 	mov    0x2025dc(%rip),%rax        # 6044c0 <global_save_stack>
  401ee4:	48 89 c4             	mov    %rax,%rsp
  401ee7:	be 00 00 10 00       	mov    $0x100000,%esi
  401eec:	bf 00 60 58 55       	mov    $0x55586000,%edi
  401ef1:	e8 5a ee ff ff       	callq  400d50 <munmap@plt>
  401ef6:	48 83 c4 08          	add    $0x8,%rsp
  401efa:	c3                   	retq   
  401efb:	0f 1f 44 00 00       	nopl   0x0(%rax,%rax,1)

0000000000401f00 <sigalrm_handler>:
  401f00:	48 83 ec 08          	sub    $0x8,%rsp
  401f04:	ba 00 00 00 00       	mov    $0x0,%edx
  401f09:	be 20 33 40 00       	mov    $0x403320,%esi
  401f0e:	48 8b 3d 9b 25 20 00 	mov    0x20259b(%rip),%rdi        # 6044b0 <stderr@@GLIBC_2.2.5>
  401f15:	b8 00 00 00 00       	mov    $0x0,%eax
  401f1a:	e8 c1 ed ff ff       	callq  400ce0 <fprintf@plt>
  401f1f:	bf 01 00 00 00       	mov    $0x1,%edi
  401f24:	e8 97 ee ff ff       	callq  400dc0 <exit@plt>

0000000000401f29 <rio_readlineb>:
  401f29:	41 57                	push   %r15
  401f2b:	41 56                	push   %r14
  401f2d:	41 55                	push   %r13
  401f2f:	41 54                	push   %r12
  401f31:	55                   	push   %rbp
  401f32:	53                   	push   %rbx
  401f33:	48 83 ec 38          	sub    $0x38,%rsp
  401f37:	49 89 f6             	mov    %rsi,%r14
  401f3a:	48 89 54 24 18       	mov    %rdx,0x18(%rsp)
  401f3f:	48 83 fa 01          	cmp    $0x1,%rdx
  401f43:	0f 86 bd 00 00 00    	jbe    402006 <rio_readlineb+0xdd>
  401f49:	48 89 fb             	mov    %rdi,%rbx
  401f4c:	41 bd 01 00 00 00    	mov    $0x1,%r13d
  401f52:	4c 8d 67 10          	lea    0x10(%rdi),%r12
  401f56:	eb 2e                	jmp    401f86 <rio_readlineb+0x5d>
  401f58:	ba 00 20 00 00       	mov    $0x2000,%edx
  401f5d:	4c 89 e6             	mov    %r12,%rsi
  401f60:	8b 3b                	mov    (%rbx),%edi
  401f62:	e8 39 ed ff ff       	callq  400ca0 <read@plt>
  401f67:	89 43 04             	mov    %eax,0x4(%rbx)
  401f6a:	85 c0                	test   %eax,%eax
  401f6c:	79 0f                	jns    401f7d <rio_readlineb+0x54>
  401f6e:	e8 7d ec ff ff       	callq  400bf0 <__errno_location@plt>
  401f73:	83 38 04             	cmpl   $0x4,(%rax)
  401f76:	74 0e                	je     401f86 <rio_readlineb+0x5d>
  401f78:	e9 98 00 00 00       	jmpq   402015 <rio_readlineb+0xec>
  401f7d:	85 c0                	test   %eax,%eax
  401f7f:	90                   	nop
  401f80:	74 6c                	je     401fee <rio_readlineb+0xc5>
  401f82:	4c 89 63 08          	mov    %r12,0x8(%rbx)
  401f86:	8b 6b 04             	mov    0x4(%rbx),%ebp
  401f89:	85 ed                	test   %ebp,%ebp
  401f8b:	7e cb                	jle    401f58 <rio_readlineb+0x2f>
  401f8d:	85 ed                	test   %ebp,%ebp
  401f8f:	41 0f 95 c7          	setne  %r15b
  401f93:	41 0f b6 c7          	movzbl %r15b,%eax
  401f97:	89 44 24 0c          	mov    %eax,0xc(%rsp)
  401f9b:	45 0f b6 ff          	movzbl %r15b,%r15d
  401f9f:	48 8b 4b 08          	mov    0x8(%rbx),%rcx
  401fa3:	4c 89 fa             	mov    %r15,%rdx
  401fa6:	48 89 4c 24 10       	mov    %rcx,0x10(%rsp)
  401fab:	48 89 ce             	mov    %rcx,%rsi
  401fae:	48 8d 7c 24 2f       	lea    0x2f(%rsp),%rdi
  401fb3:	e8 48 ed ff ff       	callq  400d00 <memcpy@plt>
  401fb8:	4c 03 7c 24 10       	add    0x10(%rsp),%r15
  401fbd:	4c 89 7b 08          	mov    %r15,0x8(%rbx)
  401fc1:	8b 44 24 0c          	mov    0xc(%rsp),%eax
  401fc5:	29 c5                	sub    %eax,%ebp
  401fc7:	89 6b 04             	mov    %ebp,0x4(%rbx)
  401fca:	83 f8 01             	cmp    $0x1,%eax
  401fcd:	75 13                	jne    401fe2 <rio_readlineb+0xb9>
  401fcf:	49 83 c6 01          	add    $0x1,%r14
  401fd3:	0f b6 44 24 2f       	movzbl 0x2f(%rsp),%eax
  401fd8:	41 88 46 ff          	mov    %al,-0x1(%r14)
  401fdc:	3c 0a                	cmp    $0xa,%al
  401fde:	75 19                	jne    401ff9 <rio_readlineb+0xd0>
  401fe0:	eb 2a                	jmp    40200c <rio_readlineb+0xe3>
  401fe2:	83 7c 24 0c 00       	cmpl   $0x0,0xc(%rsp)
  401fe7:	75 35                	jne    40201e <rio_readlineb+0xf5>
  401fe9:	4c 89 e8             	mov    %r13,%rax
  401fec:	eb 03                	jmp    401ff1 <rio_readlineb+0xc8>
  401fee:	4c 89 e8             	mov    %r13,%rax
  401ff1:	48 83 f8 01          	cmp    $0x1,%rax
  401ff5:	75 15                	jne    40200c <rio_readlineb+0xe3>
  401ff7:	eb 2e                	jmp    402027 <rio_readlineb+0xfe>
  401ff9:	49 83 c5 01          	add    $0x1,%r13
  401ffd:	4c 3b 6c 24 18       	cmp    0x18(%rsp),%r13
  402002:	74 08                	je     40200c <rio_readlineb+0xe3>
  402004:	eb 80                	jmp    401f86 <rio_readlineb+0x5d>
  402006:	41 bd 01 00 00 00    	mov    $0x1,%r13d
  40200c:	41 c6 06 00          	movb   $0x0,(%r14)
  402010:	4c 89 e8             	mov    %r13,%rax
  402013:	eb 17                	jmp    40202c <rio_readlineb+0x103>
  402015:	48 c7 c0 ff ff ff ff 	mov    $0xffffffffffffffff,%rax
  40201c:	eb 0e                	jmp    40202c <rio_readlineb+0x103>
  40201e:	48 c7 c0 ff ff ff ff 	mov    $0xffffffffffffffff,%rax
  402025:	eb 05                	jmp    40202c <rio_readlineb+0x103>
  402027:	b8 00 00 00 00       	mov    $0x0,%eax
  40202c:	48 83 c4 38          	add    $0x38,%rsp
  402030:	5b                   	pop    %rbx
  402031:	5d                   	pop    %rbp
  402032:	41 5c                	pop    %r12
  402034:	41 5d                	pop    %r13
  402036:	41 5e                	pop    %r14
  402038:	41 5f                	pop    %r15
  40203a:	c3                   	retq   

000000000040203b <submitr>:
  40203b:	41 57                	push   %r15
  40203d:	41 56                	push   %r14
  40203f:	41 55                	push   %r13
  402041:	41 54                	push   %r12
  402043:	55                   	push   %rbp
  402044:	53                   	push   %rbx
  402045:	48 81 ec 58 a0 00 00 	sub    $0xa058,%rsp
  40204c:	49 89 ff             	mov    %rdi,%r15
  40204f:	89 f5                	mov    %esi,%ebp
  402051:	48 89 14 24          	mov    %rdx,(%rsp)
  402055:	48 89 4c 24 08       	mov    %rcx,0x8(%rsp)
  40205a:	4d 89 c5             	mov    %r8,%r13
  40205d:	4c 89 cb             	mov    %r9,%rbx
  402060:	4c 8b b4 24 90 a0 00 	mov    0xa090(%rsp),%r14
  402067:	00 
  402068:	c7 84 24 2c 20 00 00 	movl   $0x0,0x202c(%rsp)
  40206f:	00 00 00 00 
  402073:	ba 00 00 00 00       	mov    $0x0,%edx
  402078:	be 01 00 00 00       	mov    $0x1,%esi
  40207d:	bf 02 00 00 00       	mov    $0x2,%edi
  402082:	e8 59 ed ff ff       	callq  400de0 <socket@plt>
  402087:	41 89 c4             	mov    %eax,%r12d
  40208a:	85 c0                	test   %eax,%eax
  40208c:	79 50                	jns    4020de <submitr+0xa3>
  40208e:	48 b8 45 72 72 6f 72 	movabs $0x43203a726f727245,%rax
  402095:	3a 20 43 
  402098:	49 89 06             	mov    %rax,(%r14)
  40209b:	48 b8 6c 69 65 6e 74 	movabs $0x6e7520746e65696c,%rax
  4020a2:	20 75 6e 
  4020a5:	49 89 46 08          	mov    %rax,0x8(%r14)
  4020a9:	48 b8 61 62 6c 65 20 	movabs $0x206f7420656c6261,%rax
  4020b0:	74 6f 20 
  4020b3:	49 89 46 10          	mov    %rax,0x10(%r14)
  4020b7:	48 b8 63 72 65 61 74 	movabs $0x7320657461657263,%rax
  4020be:	65 20 73 
  4020c1:	49 89 46 18          	mov    %rax,0x18(%r14)
  4020c5:	41 c7 46 20 6f 63 6b 	movl   $0x656b636f,0x20(%r14)
  4020cc:	65 
  4020cd:	66 41 c7 46 24 74 00 	movw   $0x74,0x24(%r14)
  4020d4:	b8 ff ff ff ff       	mov    $0xffffffff,%eax
  4020d9:	e9 b3 07 00 00       	jmpq   402891 <submitr+0x856>
  4020de:	4c 89 ff             	mov    %r15,%rdi
  4020e1:	e8 ea eb ff ff       	callq  400cd0 <gethostbyname@plt>
  4020e6:	48 85 c0             	test   %rax,%rax
  4020e9:	75 6b                	jne    402156 <submitr+0x11b>
  4020eb:	48 b8 45 72 72 6f 72 	movabs $0x44203a726f727245,%rax
  4020f2:	3a 20 44 
  4020f5:	49 89 06             	mov    %rax,(%r14)
  4020f8:	48 b8 4e 53 20 69 73 	movabs $0x6e7520736920534e,%rax
  4020ff:	20 75 6e 
  402102:	49 89 46 08          	mov    %rax,0x8(%r14)
  402106:	48 b8 61 62 6c 65 20 	movabs $0x206f7420656c6261,%rax
  40210d:	74 6f 20 
  402110:	49 89 46 10          	mov    %rax,0x10(%r14)
  402114:	48 b8 72 65 73 6f 6c 	movabs $0x2065766c6f736572,%rax
  40211b:	76 65 20 
  40211e:	49 89 46 18          	mov    %rax,0x18(%r14)
  402122:	48 b8 73 65 72 76 65 	movabs $0x6120726576726573,%rax
  402129:	72 20 61 
  40212c:	49 89 46 20          	mov    %rax,0x20(%r14)
  402130:	41 c7 46 28 64 64 72 	movl   $0x65726464,0x28(%r14)
  402137:	65 
  402138:	66 41 c7 46 2c 73 73 	movw   $0x7373,0x2c(%r14)
  40213f:	41 c6 46 2e 00       	movb   $0x0,0x2e(%r14)
  402144:	44 89 e7             	mov    %r12d,%edi
  402147:	e8 44 eb ff ff       	callq  400c90 <close@plt>
  40214c:	b8 ff ff ff ff       	mov    $0xffffffff,%eax
  402151:	e9 3b 07 00 00       	jmpq   402891 <submitr+0x856>
  402156:	48 c7 84 24 40 a0 00 	movq   $0x0,0xa040(%rsp)
  40215d:	00 00 00 00 00 
  402162:	48 c7 84 24 48 a0 00 	movq   $0x0,0xa048(%rsp)
  402169:	00 00 00 00 00 
  40216e:	66 c7 84 24 40 a0 00 	movw   $0x2,0xa040(%rsp)
  402175:	00 02 00 
  402178:	48 63 50 14          	movslq 0x14(%rax),%rdx
  40217c:	48 8d b4 24 44 a0 00 	lea    0xa044(%rsp),%rsi
  402183:	00 
  402184:	48 8b 40 18          	mov    0x18(%rax),%rax
  402188:	48 8b 38             	mov    (%rax),%rdi
  40218b:	e8 d0 eb ff ff       	callq  400d60 <bcopy@plt>
  402190:	66 c1 cd 08          	ror    $0x8,%bp
  402194:	66 89 ac 24 42 a0 00 	mov    %bp,0xa042(%rsp)
  40219b:	00 
  40219c:	ba 10 00 00 00       	mov    $0x10,%edx
  4021a1:	48 8d b4 24 40 a0 00 	lea    0xa040(%rsp),%rsi
  4021a8:	00 
  4021a9:	44 89 e7             	mov    %r12d,%edi
  4021ac:	e8 1f ec ff ff       	callq  400dd0 <connect@plt>
  4021b1:	85 c0                	test   %eax,%eax
  4021b3:	79 5d                	jns    402212 <submitr+0x1d7>
  4021b5:	48 b8 45 72 72 6f 72 	movabs $0x55203a726f727245,%rax
  4021bc:	3a 20 55 
  4021bf:	49 89 06             	mov    %rax,(%r14)
  4021c2:	48 b8 6e 61 62 6c 65 	movabs $0x6f7420656c62616e,%rax
  4021c9:	20 74 6f 
  4021cc:	49 89 46 08          	mov    %rax,0x8(%r14)
  4021d0:	48 b8 20 63 6f 6e 6e 	movabs $0x7463656e6e6f6320,%rax
  4021d7:	65 63 74 
  4021da:	49 89 46 10          	mov    %rax,0x10(%r14)
  4021de:	48 b8 20 74 6f 20 74 	movabs $0x20656874206f7420,%rax
  4021e5:	68 65 20 
  4021e8:	49 89 46 18          	mov    %rax,0x18(%r14)
  4021ec:	41 c7 46 20 73 65 72 	movl   $0x76726573,0x20(%r14)
  4021f3:	76 
  4021f4:	66 41 c7 46 24 65 72 	movw   $0x7265,0x24(%r14)
  4021fb:	41 c6 46 26 00       	movb   $0x0,0x26(%r14)
  402200:	44 89 e7             	mov    %r12d,%edi
  402203:	e8 88 ea ff ff       	callq  400c90 <close@plt>
  402208:	b8 ff ff ff ff       	mov    $0xffffffff,%eax
  40220d:	e9 7f 06 00 00       	jmpq   402891 <submitr+0x856>
  402212:	48 c7 c2 ff ff ff ff 	mov    $0xffffffffffffffff,%rdx
  402219:	48 89 df             	mov    %rbx,%rdi
  40221c:	b8 00 00 00 00       	mov    $0x0,%eax
  402221:	48 89 d1             	mov    %rdx,%rcx
  402224:	f2 ae                	repnz scas %es:(%rdi),%al
  402226:	48 f7 d1             	not    %rcx
  402229:	48 89 ce             	mov    %rcx,%rsi
  40222c:	48 8b 3c 24          	mov    (%rsp),%rdi
  402230:	48 89 d1             	mov    %rdx,%rcx
  402233:	f2 ae                	repnz scas %es:(%rdi),%al
  402235:	49 89 c8             	mov    %rcx,%r8
  402238:	48 8b 7c 24 08       	mov    0x8(%rsp),%rdi
  40223d:	48 89 d1             	mov    %rdx,%rcx
  402240:	f2 ae                	repnz scas %es:(%rdi),%al
  402242:	48 f7 d1             	not    %rcx
  402245:	49 89 c9             	mov    %rcx,%r9
  402248:	4c 89 ef             	mov    %r13,%rdi
  40224b:	48 89 d1             	mov    %rdx,%rcx
  40224e:	f2 ae                	repnz scas %es:(%rdi),%al
  402250:	4d 29 c1             	sub    %r8,%r9
  402253:	49 29 c9             	sub    %rcx,%r9
  402256:	48 8d 44 76 fd       	lea    -0x3(%rsi,%rsi,2),%rax
  40225b:	49 8d 44 01 7b       	lea    0x7b(%r9,%rax,1),%rax
  402260:	48 3d 00 20 00 00    	cmp    $0x2000,%rax
  402266:	76 73                	jbe    4022db <submitr+0x2a0>
  402268:	48 b8 45 72 72 6f 72 	movabs $0x52203a726f727245,%rax
  40226f:	3a 20 52 
  402272:	49 89 06             	mov    %rax,(%r14)
  402275:	48 b8 65 73 75 6c 74 	movabs $0x747320746c757365,%rax
  40227c:	20 73 74 
  40227f:	49 89 46 08          	mov    %rax,0x8(%r14)
  402283:	48 b8 72 69 6e 67 20 	movabs $0x6f6f7420676e6972,%rax
  40228a:	74 6f 6f 
  40228d:	49 89 46 10          	mov    %rax,0x10(%r14)
  402291:	48 b8 20 6c 61 72 67 	movabs $0x202e656772616c20,%rax
  402298:	65 2e 20 
  40229b:	49 89 46 18          	mov    %rax,0x18(%r14)
  40229f:	48 b8 49 6e 63 72 65 	movabs $0x6573616572636e49,%rax
  4022a6:	61 73 65 
  4022a9:	49 89 46 20          	mov    %rax,0x20(%r14)
  4022ad:	48 b8 20 53 55 42 4d 	movabs $0x5254494d42555320,%rax
  4022b4:	49 54 52 
  4022b7:	49 89 46 28          	mov    %rax,0x28(%r14)
  4022bb:	48 b8 5f 4d 41 58 42 	movabs $0x46554258414d5f,%rax
  4022c2:	55 46 00 
  4022c5:	49 89 46 30          	mov    %rax,0x30(%r14)
  4022c9:	44 89 e7             	mov    %r12d,%edi
  4022cc:	e8 bf e9 ff ff       	callq  400c90 <close@plt>
  4022d1:	b8 ff ff ff ff       	mov    $0xffffffff,%eax
  4022d6:	e9 b6 05 00 00       	jmpq   402891 <submitr+0x856>
  4022db:	48 8d 94 24 30 40 00 	lea    0x4030(%rsp),%rdx
  4022e2:	00 
  4022e3:	b9 00 04 00 00       	mov    $0x400,%ecx
  4022e8:	b8 00 00 00 00       	mov    $0x0,%eax
  4022ed:	48 89 d7             	mov    %rdx,%rdi
  4022f0:	f3 48 ab             	rep stos %rax,%es:(%rdi)
  4022f3:	48 89 df             	mov    %rbx,%rdi
  4022f6:	48 c7 c1 ff ff ff ff 	mov    $0xffffffffffffffff,%rcx
  4022fd:	f2 ae                	repnz scas %es:(%rdi),%al
  4022ff:	48 f7 d1             	not    %rcx
  402302:	48 83 e9 01          	sub    $0x1,%rcx
  402306:	85 c9                	test   %ecx,%ecx
  402308:	0f 84 50 04 00 00    	je     40275e <submitr+0x723>
  40230e:	8d 41 ff             	lea    -0x1(%rcx),%eax
  402311:	4c 8d 6c 03 01       	lea    0x1(%rbx,%rax,1),%r13
  402316:	48 89 d5             	mov    %rdx,%rbp
  402319:	0f b6 13             	movzbl (%rbx),%edx
  40231c:	80 fa 2a             	cmp    $0x2a,%dl
  40231f:	74 1f                	je     402340 <submitr+0x305>
  402321:	8d 42 d3             	lea    -0x2d(%rdx),%eax
  402324:	3c 01                	cmp    $0x1,%al
  402326:	76 18                	jbe    402340 <submitr+0x305>
  402328:	80 fa 5f             	cmp    $0x5f,%dl
  40232b:	74 13                	je     402340 <submitr+0x305>
  40232d:	8d 42 d0             	lea    -0x30(%rdx),%eax
  402330:	3c 09                	cmp    $0x9,%al
  402332:	76 0c                	jbe    402340 <submitr+0x305>
  402334:	89 d0                	mov    %edx,%eax
  402336:	83 e0 df             	and    $0xffffffdf,%eax
  402339:	83 e8 41             	sub    $0x41,%eax
  40233c:	3c 19                	cmp    $0x19,%al
  40233e:	77 09                	ja     402349 <submitr+0x30e>
  402340:	48 8d 45 01          	lea    0x1(%rbp),%rax
  402344:	88 55 00             	mov    %dl,0x0(%rbp)
  402347:	eb 52                	jmp    40239b <submitr+0x360>
  402349:	80 fa 20             	cmp    $0x20,%dl
  40234c:	75 0a                	jne    402358 <submitr+0x31d>
  40234e:	48 8d 45 01          	lea    0x1(%rbp),%rax
  402352:	c6 45 00 2b          	movb   $0x2b,0x0(%rbp)
  402356:	eb 43                	jmp    40239b <submitr+0x360>
  402358:	8d 42 e0             	lea    -0x20(%rdx),%eax
  40235b:	3c 5f                	cmp    $0x5f,%al
  40235d:	76 09                	jbe    402368 <submitr+0x32d>
  40235f:	80 fa 09             	cmp    $0x9,%dl
  402362:	0f 85 57 04 00 00    	jne    4027bf <submitr+0x784>
  402368:	0f b6 d2             	movzbl %dl,%edx
  40236b:	be b8 33 40 00       	mov    $0x4033b8,%esi
  402370:	48 8d 7c 24 10       	lea    0x10(%rsp),%rdi
  402375:	b8 00 00 00 00       	mov    $0x0,%eax
  40237a:	e8 31 ea ff ff       	callq  400db0 <sprintf@plt>
  40237f:	0f b6 44 24 10       	movzbl 0x10(%rsp),%eax
  402384:	88 45 00             	mov    %al,0x0(%rbp)
  402387:	0f b6 44 24 11       	movzbl 0x11(%rsp),%eax
  40238c:	88 45 01             	mov    %al,0x1(%rbp)
  40238f:	48 8d 45 03          	lea    0x3(%rbp),%rax
  402393:	0f b6 54 24 12       	movzbl 0x12(%rsp),%edx
  402398:	88 55 02             	mov    %dl,0x2(%rbp)
  40239b:	48 83 c3 01          	add    $0x1,%rbx
  40239f:	4c 39 eb             	cmp    %r13,%rbx
  4023a2:	0f 84 b6 03 00 00    	je     40275e <submitr+0x723>
  4023a8:	48 89 c5             	mov    %rax,%rbp
  4023ab:	e9 69 ff ff ff       	jmpq   402319 <submitr+0x2de>
  4023b0:	48 89 da             	mov    %rbx,%rdx
  4023b3:	48 89 ee             	mov    %rbp,%rsi
  4023b6:	44 89 e7             	mov    %r12d,%edi
  4023b9:	e8 82 e8 ff ff       	callq  400c40 <write@plt>
  4023be:	48 85 c0             	test   %rax,%rax
  4023c1:	7f 0f                	jg     4023d2 <submitr+0x397>
  4023c3:	e8 28 e8 ff ff       	callq  400bf0 <__errno_location@plt>
  4023c8:	83 38 04             	cmpl   $0x4,(%rax)
  4023cb:	75 12                	jne    4023df <submitr+0x3a4>
  4023cd:	b8 00 00 00 00       	mov    $0x0,%eax
  4023d2:	48 01 c5             	add    %rax,%rbp
  4023d5:	48 29 c3             	sub    %rax,%rbx
  4023d8:	75 d6                	jne    4023b0 <submitr+0x375>
  4023da:	4d 85 ed             	test   %r13,%r13
  4023dd:	79 71                	jns    402450 <submitr+0x415>
  4023df:	48 b8 45 72 72 6f 72 	movabs $0x43203a726f727245,%rax
  4023e6:	3a 20 43 
  4023e9:	49 89 06             	mov    %rax,(%r14)
  4023ec:	48 b8 6c 69 65 6e 74 	movabs $0x6e7520746e65696c,%rax
  4023f3:	20 75 6e 
  4023f6:	49 89 46 08          	mov    %rax,0x8(%r14)
  4023fa:	48 b8 61 62 6c 65 20 	movabs $0x206f7420656c6261,%rax
  402401:	74 6f 20 
  402404:	49 89 46 10          	mov    %rax,0x10(%r14)
  402408:	48 b8 77 72 69 74 65 	movabs $0x6f74206574697277,%rax
  40240f:	20 74 6f 
  402412:	49 89 46 18          	mov    %rax,0x18(%r14)
  402416:	48 b8 20 74 68 65 20 	movabs $0x7365722065687420,%rax
  40241d:	72 65 73 
  402420:	49 89 46 20          	mov    %rax,0x20(%r14)
  402424:	48 b8 75 6c 74 20 73 	movabs $0x7672657320746c75,%rax
  40242b:	65 72 76 
  40242e:	49 89 46 28          	mov    %rax,0x28(%r14)
  402432:	66 41 c7 46 30 65 72 	movw   $0x7265,0x30(%r14)
  402439:	41 c6 46 32 00       	movb   $0x0,0x32(%r14)
  40243e:	44 89 e7             	mov    %r12d,%edi
  402441:	e8 4a e8 ff ff       	callq  400c90 <close@plt>
  402446:	b8 ff ff ff ff       	mov    $0xffffffff,%eax
  40244b:	e9 41 04 00 00       	jmpq   402891 <submitr+0x856>
  402450:	44 89 a4 24 30 80 00 	mov    %r12d,0x8030(%rsp)
  402457:	00 
  402458:	c7 84 24 34 80 00 00 	movl   $0x0,0x8034(%rsp)
  40245f:	00 00 00 00 
  402463:	48 8d 84 24 40 80 00 	lea    0x8040(%rsp),%rax
  40246a:	00 
  40246b:	48 89 84 24 38 80 00 	mov    %rax,0x8038(%rsp)
  402472:	00 
  402473:	ba 00 20 00 00       	mov    $0x2000,%edx
  402478:	48 8d b4 24 30 60 00 	lea    0x6030(%rsp),%rsi
  40247f:	00 
  402480:	48 8d bc 24 30 80 00 	lea    0x8030(%rsp),%rdi
  402487:	00 
  402488:	e8 9c fa ff ff       	callq  401f29 <rio_readlineb>
  40248d:	48 85 c0             	test   %rax,%rax
  402490:	0f 8f 80 00 00 00    	jg     402516 <submitr+0x4db>
  402496:	48 b8 45 72 72 6f 72 	movabs $0x43203a726f727245,%rax
  40249d:	3a 20 43 
  4024a0:	49 89 06             	mov    %rax,(%r14)
  4024a3:	48 b8 6c 69 65 6e 74 	movabs $0x6e7520746e65696c,%rax
  4024aa:	20 75 6e 
  4024ad:	49 89 46 08          	mov    %rax,0x8(%r14)
  4024b1:	48 b8 61 62 6c 65 20 	movabs $0x206f7420656c6261,%rax
  4024b8:	74 6f 20 
  4024bb:	49 89 46 10          	mov    %rax,0x10(%r14)
  4024bf:	48 b8 72 65 61 64 20 	movabs $0x7269662064616572,%rax
  4024c6:	66 69 72 
  4024c9:	49 89 46 18          	mov    %rax,0x18(%r14)
  4024cd:	48 b8 73 74 20 68 65 	movabs $0x6564616568207473,%rax
  4024d4:	61 64 65 
  4024d7:	49 89 46 20          	mov    %rax,0x20(%r14)
  4024db:	48 b8 72 20 66 72 6f 	movabs $0x72206d6f72662072,%rax
  4024e2:	6d 20 72 
  4024e5:	49 89 46 28          	mov    %rax,0x28(%r14)
  4024e9:	48 b8 65 73 75 6c 74 	movabs $0x657320746c757365,%rax
  4024f0:	20 73 65 
  4024f3:	49 89 46 30          	mov    %rax,0x30(%r14)
  4024f7:	41 c7 46 38 72 76 65 	movl   $0x72657672,0x38(%r14)
  4024fe:	72 
  4024ff:	41 c6 46 3c 00       	movb   $0x0,0x3c(%r14)
  402504:	44 89 e7             	mov    %r12d,%edi
  402507:	e8 84 e7 ff ff       	callq  400c90 <close@plt>
  40250c:	b8 ff ff ff ff       	mov    $0xffffffff,%eax
  402511:	e9 7b 03 00 00       	jmpq   402891 <submitr+0x856>
  402516:	4c 8d 44 24 20       	lea    0x20(%rsp),%r8
  40251b:	48 8d 8c 24 2c 20 00 	lea    0x202c(%rsp),%rcx
  402522:	00 
  402523:	48 8d 94 24 30 20 00 	lea    0x2030(%rsp),%rdx
  40252a:	00 
  40252b:	be bf 33 40 00       	mov    $0x4033bf,%esi
  402530:	48 8d bc 24 30 60 00 	lea    0x6030(%rsp),%rdi
  402537:	00 
  402538:	b8 00 00 00 00       	mov    $0x0,%eax
  40253d:	e8 fe e7 ff ff       	callq  400d40 <__isoc99_sscanf@plt>
  402542:	e9 9a 00 00 00       	jmpq   4025e1 <submitr+0x5a6>
  402547:	ba 00 20 00 00       	mov    $0x2000,%edx
  40254c:	48 8d b4 24 30 60 00 	lea    0x6030(%rsp),%rsi
  402553:	00 
  402554:	48 8d bc 24 30 80 00 	lea    0x8030(%rsp),%rdi
  40255b:	00 
  40255c:	e8 c8 f9 ff ff       	callq  401f29 <rio_readlineb>
  402561:	48 85 c0             	test   %rax,%rax
  402564:	7f 7b                	jg     4025e1 <submitr+0x5a6>
  402566:	48 b8 45 72 72 6f 72 	movabs $0x43203a726f727245,%rax
  40256d:	3a 20 43 
  402570:	49 89 06             	mov    %rax,(%r14)
  402573:	48 b8 6c 69 65 6e 74 	movabs $0x6e7520746e65696c,%rax
  40257a:	20 75 6e 
  40257d:	49 89 46 08          	mov    %rax,0x8(%r14)
  402581:	48 b8 61 62 6c 65 20 	movabs $0x206f7420656c6261,%rax
  402588:	74 6f 20 
  40258b:	49 89 46 10          	mov    %rax,0x10(%r14)
  40258f:	48 b8 72 65 61 64 20 	movabs $0x6165682064616572,%rax
  402596:	68 65 61 
  402599:	49 89 46 18          	mov    %rax,0x18(%r14)
  40259d:	48 b8 64 65 72 73 20 	movabs $0x6f72662073726564,%rax
  4025a4:	66 72 6f 
  4025a7:	49 89 46 20          	mov    %rax,0x20(%r14)
  4025ab:	48 b8 6d 20 74 68 65 	movabs $0x657220656874206d,%rax
  4025b2:	20 72 65 
  4025b5:	49 89 46 28          	mov    %rax,0x28(%r14)
  4025b9:	48 b8 73 75 6c 74 20 	movabs $0x72657320746c7573,%rax
  4025c0:	73 65 72 
  4025c3:	49 89 46 30          	mov    %rax,0x30(%r14)
  4025c7:	41 c7 46 38 76 65 72 	movl   $0x726576,0x38(%r14)
  4025ce:	00 
  4025cf:	44 89 e7             	mov    %r12d,%edi
  4025d2:	e8 b9 e6 ff ff       	callq  400c90 <close@plt>
  4025d7:	b8 ff ff ff ff       	mov    $0xffffffff,%eax
  4025dc:	e9 b0 02 00 00       	jmpq   402891 <submitr+0x856>
  4025e1:	80 bc 24 30 60 00 00 	cmpb   $0xd,0x6030(%rsp)
  4025e8:	0d 
  4025e9:	0f 85 58 ff ff ff    	jne    402547 <submitr+0x50c>
  4025ef:	80 bc 24 31 60 00 00 	cmpb   $0xa,0x6031(%rsp)
  4025f6:	0a 
  4025f7:	0f 85 4a ff ff ff    	jne    402547 <submitr+0x50c>
  4025fd:	80 bc 24 32 60 00 00 	cmpb   $0x0,0x6032(%rsp)
  402604:	00 
  402605:	0f 85 3c ff ff ff    	jne    402547 <submitr+0x50c>
  40260b:	ba 00 20 00 00       	mov    $0x2000,%edx
  402610:	48 8d b4 24 30 60 00 	lea    0x6030(%rsp),%rsi
  402617:	00 
  402618:	48 8d bc 24 30 80 00 	lea    0x8030(%rsp),%rdi
  40261f:	00 
  402620:	e8 04 f9 ff ff       	callq  401f29 <rio_readlineb>
  402625:	48 85 c0             	test   %rax,%rax
  402628:	0f 8f 87 00 00 00    	jg     4026b5 <submitr+0x67a>
  40262e:	48 b8 45 72 72 6f 72 	movabs $0x43203a726f727245,%rax
  402635:	3a 20 43 
  402638:	49 89 06             	mov    %rax,(%r14)
  40263b:	48 b8 6c 69 65 6e 74 	movabs $0x6e7520746e65696c,%rax
  402642:	20 75 6e 
  402645:	49 89 46 08          	mov    %rax,0x8(%r14)
  402649:	48 b8 61 62 6c 65 20 	movabs $0x206f7420656c6261,%rax
  402650:	74 6f 20 
  402653:	49 89 46 10          	mov    %rax,0x10(%r14)
  402657:	48 b8 72 65 61 64 20 	movabs $0x6174732064616572,%rax
  40265e:	73 74 61 
  402661:	49 89 46 18          	mov    %rax,0x18(%r14)
  402665:	48 b8 74 75 73 20 6d 	movabs $0x7373656d20737574,%rax
  40266c:	65 73 73 
  40266f:	49 89 46 20          	mov    %rax,0x20(%r14)
  402673:	48 b8 61 67 65 20 66 	movabs $0x6d6f726620656761,%rax
  40267a:	72 6f 6d 
  40267d:	49 89 46 28          	mov    %rax,0x28(%r14)
  402681:	48 b8 20 72 65 73 75 	movabs $0x20746c7573657220,%rax
  402688:	6c 74 20 
  40268b:	49 89 46 30          	mov    %rax,0x30(%r14)
  40268f:	41 c7 46 38 73 65 72 	movl   $0x76726573,0x38(%r14)
  402696:	76 
  402697:	66 41 c7 46 3c 65 72 	movw   $0x7265,0x3c(%r14)
  40269e:	41 c6 46 3e 00       	movb   $0x0,0x3e(%r14)
  4026a3:	44 89 e7             	mov    %r12d,%edi
  4026a6:	e8 e5 e5 ff ff       	callq  400c90 <close@plt>
  4026ab:	b8 ff ff ff ff       	mov    $0xffffffff,%eax
  4026b0:	e9 dc 01 00 00       	jmpq   402891 <submitr+0x856>
  4026b5:	8b 94 24 2c 20 00 00 	mov    0x202c(%rsp),%edx
  4026bc:	81 fa c8 00 00 00    	cmp    $0xc8,%edx
  4026c2:	74 29                	je     4026ed <submitr+0x6b2>
  4026c4:	48 8d 4c 24 20       	lea    0x20(%rsp),%rcx
  4026c9:	be 48 33 40 00       	mov    $0x403348,%esi
  4026ce:	4c 89 f7             	mov    %r14,%rdi
  4026d1:	b8 00 00 00 00       	mov    $0x0,%eax
  4026d6:	e8 d5 e6 ff ff       	callq  400db0 <sprintf@plt>
  4026db:	44 89 e7             	mov    %r12d,%edi
  4026de:	e8 ad e5 ff ff       	callq  400c90 <close@plt>
  4026e3:	b8 ff ff ff ff       	mov    $0xffffffff,%eax
  4026e8:	e9 a4 01 00 00       	jmpq   402891 <submitr+0x856>
  4026ed:	48 8d b4 24 30 60 00 	lea    0x6030(%rsp),%rsi
  4026f4:	00 
  4026f5:	4c 89 f7             	mov    %r14,%rdi
  4026f8:	e8 23 e5 ff ff       	callq  400c20 <strcpy@plt>
  4026fd:	44 89 e7             	mov    %r12d,%edi
  402700:	e8 8b e5 ff ff       	callq  400c90 <close@plt>
  402705:	41 0f b6 06          	movzbl (%r14),%eax
  402709:	83 e8 4f             	sub    $0x4f,%eax
  40270c:	89 c2                	mov    %eax,%edx
  40270e:	0f 85 35 01 00 00    	jne    402849 <submitr+0x80e>
  402714:	41 80 7e 01 4b       	cmpb   $0x4b,0x1(%r14)
  402719:	0f 85 50 01 00 00    	jne    40286f <submitr+0x834>
  40271f:	41 80 7e 02 0a       	cmpb   $0xa,0x2(%r14)
  402724:	0f 85 45 01 00 00    	jne    40286f <submitr+0x834>
  40272a:	41 80 7e 03 00       	cmpb   $0x0,0x3(%r14)
  40272f:	74 23                	je     402754 <submitr+0x719>
  402731:	e9 39 01 00 00       	jmpq   40286f <submitr+0x834>
  402736:	41 0f b6 56 01       	movzbl 0x1(%r14),%edx
  40273b:	83 ea 4b             	sub    $0x4b,%edx
  40273e:	75 05                	jne    402745 <submitr+0x70a>
  402740:	41 0f b6 56 02       	movzbl 0x2(%r14),%edx
  402745:	85 d2                	test   %edx,%edx
  402747:	0f 95 c0             	setne  %al
  40274a:	0f b6 c0             	movzbl %al,%eax
  40274d:	f7 d8                	neg    %eax
  40274f:	e9 3d 01 00 00       	jmpq   402891 <submitr+0x856>
  402754:	b8 00 00 00 00       	mov    $0x0,%eax
  402759:	e9 33 01 00 00       	jmpq   402891 <submitr+0x856>
  40275e:	4d 89 f9             	mov    %r15,%r9
  402761:	4c 8d 84 24 30 40 00 	lea    0x4030(%rsp),%r8
  402768:	00 
  402769:	48 8b 0c 24          	mov    (%rsp),%rcx
  40276d:	48 8b 54 24 08       	mov    0x8(%rsp),%rdx
  402772:	be 78 33 40 00       	mov    $0x403378,%esi
  402777:	48 8d bc 24 30 60 00 	lea    0x6030(%rsp),%rdi
  40277e:	00 
  40277f:	b8 00 00 00 00       	mov    $0x0,%eax
  402784:	e8 27 e6 ff ff       	callq  400db0 <sprintf@plt>
  402789:	48 8d bc 24 30 60 00 	lea    0x6030(%rsp),%rdi
  402790:	00 
  402791:	b8 00 00 00 00       	mov    $0x0,%eax
  402796:	48 c7 c1 ff ff ff ff 	mov    $0xffffffffffffffff,%rcx
  40279d:	f2 ae                	repnz scas %es:(%rdi),%al
  40279f:	48 f7 d1             	not    %rcx
  4027a2:	48 83 e9 01          	sub    $0x1,%rcx
  4027a6:	49 89 cd             	mov    %rcx,%r13
  4027a9:	0f 84 a1 fc ff ff    	je     402450 <submitr+0x415>
  4027af:	48 89 cb             	mov    %rcx,%rbx
  4027b2:	48 8d ac 24 30 60 00 	lea    0x6030(%rsp),%rbp
  4027b9:	00 
  4027ba:	e9 f1 fb ff ff       	jmpq   4023b0 <submitr+0x375>
  4027bf:	48 b8 45 72 72 6f 72 	movabs $0x52203a726f727245,%rax
  4027c6:	3a 20 52 
  4027c9:	49 89 06             	mov    %rax,(%r14)
  4027cc:	48 b8 65 73 75 6c 74 	movabs $0x747320746c757365,%rax
  4027d3:	20 73 74 
  4027d6:	49 89 46 08          	mov    %rax,0x8(%r14)
  4027da:	48 b8 72 69 6e 67 20 	movabs $0x6e6f6320676e6972,%rax
  4027e1:	63 6f 6e 
  4027e4:	49 89 46 10          	mov    %rax,0x10(%r14)
  4027e8:	48 b8 74 61 69 6e 73 	movabs $0x6e6120736e696174,%rax
  4027ef:	20 61 6e 
  4027f2:	49 89 46 18          	mov    %rax,0x18(%r14)
  4027f6:	48 b8 20 69 6c 6c 65 	movabs $0x6c6167656c6c6920,%rax
  4027fd:	67 61 6c 
  402800:	49 89 46 20          	mov    %rax,0x20(%r14)
  402804:	48 b8 20 6f 72 20 75 	movabs $0x72706e7520726f20,%rax
  40280b:	6e 70 72 
  40280e:	49 89 46 28          	mov    %rax,0x28(%r14)
  402812:	48 b8 69 6e 74 61 62 	movabs $0x20656c6261746e69,%rax
  402819:	6c 65 20 
  40281c:	49 89 46 30          	mov    %rax,0x30(%r14)
  402820:	48 b8 63 68 61 72 61 	movabs $0x6574636172616863,%rax
  402827:	63 74 65 
  40282a:	49 89 46 38          	mov    %rax,0x38(%r14)
  40282e:	66 41 c7 46 40 72 2e 	movw   $0x2e72,0x40(%r14)
  402835:	41 c6 46 42 00       	movb   $0x0,0x42(%r14)
  40283a:	44 89 e7             	mov    %r12d,%edi
  40283d:	e8 4e e4 ff ff       	callq  400c90 <close@plt>
  402842:	b8 ff ff ff ff       	mov    $0xffffffff,%eax
  402847:	eb 48                	jmp    402891 <submitr+0x856>
  402849:	bf d0 33 40 00       	mov    $0x4033d0,%edi
  40284e:	b9 05 00 00 00       	mov    $0x5,%ecx
  402853:	4c 89 f6             	mov    %r14,%rsi
  402856:	f3 a6                	repz cmpsb %es:(%rdi),%ds:(%rsi)
  402858:	40 0f 97 c6          	seta   %sil
  40285c:	0f 92 c1             	setb   %cl
  40285f:	b8 00 00 00 00       	mov    $0x0,%eax
  402864:	40 38 ce             	cmp    %cl,%sil
  402867:	0f 85 d8 fe ff ff    	jne    402745 <submitr+0x70a>
  40286d:	eb 22                	jmp    402891 <submitr+0x856>
  40286f:	bf d0 33 40 00       	mov    $0x4033d0,%edi
  402874:	b9 05 00 00 00       	mov    $0x5,%ecx
  402879:	4c 89 f6             	mov    %r14,%rsi
  40287c:	f3 a6                	repz cmpsb %es:(%rdi),%ds:(%rsi)
  40287e:	0f 97 c1             	seta   %cl
  402881:	0f 92 c2             	setb   %dl
  402884:	b8 00 00 00 00       	mov    $0x0,%eax
  402889:	38 d1                	cmp    %dl,%cl
  40288b:	0f 85 a5 fe ff ff    	jne    402736 <submitr+0x6fb>
  402891:	48 81 c4 58 a0 00 00 	add    $0xa058,%rsp
  402898:	5b                   	pop    %rbx
  402899:	5d                   	pop    %rbp
  40289a:	41 5c                	pop    %r12
  40289c:	41 5d                	pop    %r13
  40289e:	41 5e                	pop    %r14
  4028a0:	41 5f                	pop    %r15
  4028a2:	c3                   	retq   

00000000004028a3 <init_timeout>:
  4028a3:	53                   	push   %rbx
  4028a4:	89 fb                	mov    %edi,%ebx
  4028a6:	85 ff                	test   %edi,%edi
  4028a8:	74 1e                	je     4028c8 <init_timeout+0x25>
  4028aa:	be 00 1f 40 00       	mov    $0x401f00,%esi
  4028af:	bf 0e 00 00 00       	mov    $0xe,%edi
  4028b4:	e8 07 e4 ff ff       	callq  400cc0 <signal@plt>
  4028b9:	85 db                	test   %ebx,%ebx
  4028bb:	bf 00 00 00 00       	mov    $0x0,%edi
  4028c0:	0f 49 fb             	cmovns %ebx,%edi
  4028c3:	e8 b8 e3 ff ff       	callq  400c80 <alarm@plt>
  4028c8:	5b                   	pop    %rbx
  4028c9:	c3                   	retq   

00000000004028ca <init_driver>:
  4028ca:	55                   	push   %rbp
  4028cb:	53                   	push   %rbx
  4028cc:	48 83 ec 18          	sub    $0x18,%rsp
  4028d0:	48 89 fd             	mov    %rdi,%rbp
  4028d3:	be 01 00 00 00       	mov    $0x1,%esi
  4028d8:	bf 0d 00 00 00       	mov    $0xd,%edi
  4028dd:	e8 de e3 ff ff       	callq  400cc0 <signal@plt>
  4028e2:	be 01 00 00 00       	mov    $0x1,%esi
  4028e7:	bf 1d 00 00 00       	mov    $0x1d,%edi
  4028ec:	e8 cf e3 ff ff       	callq  400cc0 <signal@plt>
  4028f1:	be 01 00 00 00       	mov    $0x1,%esi
  4028f6:	bf 1d 00 00 00       	mov    $0x1d,%edi
  4028fb:	e8 c0 e3 ff ff       	callq  400cc0 <signal@plt>
  402900:	ba 00 00 00 00       	mov    $0x0,%edx
  402905:	be 01 00 00 00       	mov    $0x1,%esi
  40290a:	bf 02 00 00 00       	mov    $0x2,%edi
  40290f:	e8 cc e4 ff ff       	callq  400de0 <socket@plt>
  402914:	89 c3                	mov    %eax,%ebx
  402916:	85 c0                	test   %eax,%eax
  402918:	79 4f                	jns    402969 <init_driver+0x9f>
  40291a:	48 b8 45 72 72 6f 72 	movabs $0x43203a726f727245,%rax
  402921:	3a 20 43 
  402924:	48 89 45 00          	mov    %rax,0x0(%rbp)
  402928:	48 b8 6c 69 65 6e 74 	movabs $0x6e7520746e65696c,%rax
  40292f:	20 75 6e 
  402932:	48 89 45 08          	mov    %rax,0x8(%rbp)
  402936:	48 b8 61 62 6c 65 20 	movabs $0x206f7420656c6261,%rax
  40293d:	74 6f 20 
  402940:	48 89 45 10          	mov    %rax,0x10(%rbp)
  402944:	48 b8 63 72 65 61 74 	movabs $0x7320657461657263,%rax
  40294b:	65 20 73 
  40294e:	48 89 45 18          	mov    %rax,0x18(%rbp)
  402952:	c7 45 20 6f 63 6b 65 	movl   $0x656b636f,0x20(%rbp)
  402959:	66 c7 45 24 74 00    	movw   $0x74,0x24(%rbp)
  40295f:	b8 ff ff ff ff       	mov    $0xffffffff,%eax
  402964:	e9 23 01 00 00       	jmpq   402a8c <init_driver+0x1c2>
  402969:	bf 12 2f 40 00       	mov    $0x402f12,%edi
  40296e:	e8 5d e3 ff ff       	callq  400cd0 <gethostbyname@plt>
  402973:	48 85 c0             	test   %rax,%rax
  402976:	75 68                	jne    4029e0 <init_driver+0x116>
  402978:	48 b8 45 72 72 6f 72 	movabs $0x44203a726f727245,%rax
  40297f:	3a 20 44 
  402982:	48 89 45 00          	mov    %rax,0x0(%rbp)
  402986:	48 b8 4e 53 20 69 73 	movabs $0x6e7520736920534e,%rax
  40298d:	20 75 6e 
  402990:	48 89 45 08          	mov    %rax,0x8(%rbp)
  402994:	48 b8 61 62 6c 65 20 	movabs $0x206f7420656c6261,%rax
  40299b:	74 6f 20 
  40299e:	48 89 45 10          	mov    %rax,0x10(%rbp)
  4029a2:	48 b8 72 65 73 6f 6c 	movabs $0x2065766c6f736572,%rax
  4029a9:	76 65 20 
  4029ac:	48 89 45 18          	mov    %rax,0x18(%rbp)
  4029b0:	48 b8 73 65 72 76 65 	movabs $0x6120726576726573,%rax
  4029b7:	72 20 61 
  4029ba:	48 89 45 20          	mov    %rax,0x20(%rbp)
  4029be:	c7 45 28 64 64 72 65 	movl   $0x65726464,0x28(%rbp)
  4029c5:	66 c7 45 2c 73 73    	movw   $0x7373,0x2c(%rbp)
  4029cb:	c6 45 2e 00          	movb   $0x0,0x2e(%rbp)
  4029cf:	89 df                	mov    %ebx,%edi
  4029d1:	e8 ba e2 ff ff       	callq  400c90 <close@plt>
  4029d6:	b8 ff ff ff ff       	mov    $0xffffffff,%eax
  4029db:	e9 ac 00 00 00       	jmpq   402a8c <init_driver+0x1c2>
  4029e0:	48 c7 04 24 00 00 00 	movq   $0x0,(%rsp)
  4029e7:	00 
  4029e8:	48 c7 44 24 08 00 00 	movq   $0x0,0x8(%rsp)
  4029ef:	00 00 
  4029f1:	66 c7 04 24 02 00    	movw   $0x2,(%rsp)
  4029f7:	48 63 50 14          	movslq 0x14(%rax),%rdx
  4029fb:	48 8d 74 24 04       	lea    0x4(%rsp),%rsi
  402a00:	48 8b 40 18          	mov    0x18(%rax),%rax
  402a04:	48 8b 38             	mov    (%rax),%rdi
  402a07:	e8 54 e3 ff ff       	callq  400d60 <bcopy@plt>
  402a0c:	66 c7 44 24 02 36 b1 	movw   $0xb136,0x2(%rsp)
  402a13:	ba 10 00 00 00       	mov    $0x10,%edx
  402a18:	48 89 e6             	mov    %rsp,%rsi
  402a1b:	89 df                	mov    %ebx,%edi
  402a1d:	e8 ae e3 ff ff       	callq  400dd0 <connect@plt>
  402a22:	85 c0                	test   %eax,%eax
  402a24:	79 50                	jns    402a76 <init_driver+0x1ac>
  402a26:	48 b8 45 72 72 6f 72 	movabs $0x55203a726f727245,%rax
  402a2d:	3a 20 55 
  402a30:	48 89 45 00          	mov    %rax,0x0(%rbp)
  402a34:	48 b8 6e 61 62 6c 65 	movabs $0x6f7420656c62616e,%rax
  402a3b:	20 74 6f 
  402a3e:	48 89 45 08          	mov    %rax,0x8(%rbp)
  402a42:	48 b8 20 63 6f 6e 6e 	movabs $0x7463656e6e6f6320,%rax
  402a49:	65 63 74 
  402a4c:	48 89 45 10          	mov    %rax,0x10(%rbp)
  402a50:	48 b8 20 74 6f 20 73 	movabs $0x76726573206f7420,%rax
  402a57:	65 72 76 
  402a5a:	48 89 45 18          	mov    %rax,0x18(%rbp)
  402a5e:	66 c7 45 20 65 72    	movw   $0x7265,0x20(%rbp)
  402a64:	c6 45 22 00          	movb   $0x0,0x22(%rbp)
  402a68:	89 df                	mov    %ebx,%edi
  402a6a:	e8 21 e2 ff ff       	callq  400c90 <close@plt>
  402a6f:	b8 ff ff ff ff       	mov    $0xffffffff,%eax
  402a74:	eb 16                	jmp    402a8c <init_driver+0x1c2>
  402a76:	89 df                	mov    %ebx,%edi
  402a78:	e8 13 e2 ff ff       	callq  400c90 <close@plt>
  402a7d:	66 c7 45 00 4f 4b    	movw   $0x4b4f,0x0(%rbp)
  402a83:	c6 45 02 00          	movb   $0x0,0x2(%rbp)
  402a87:	b8 00 00 00 00       	mov    $0x0,%eax
  402a8c:	48 83 c4 18          	add    $0x18,%rsp
  402a90:	5b                   	pop    %rbx
  402a91:	5d                   	pop    %rbp
  402a92:	c3                   	retq   

0000000000402a93 <driver_post>:
  402a93:	53                   	push   %rbx
  402a94:	48 83 ec 10          	sub    $0x10,%rsp
  402a98:	4c 89 cb             	mov    %r9,%rbx
  402a9b:	45 85 c0             	test   %r8d,%r8d
  402a9e:	74 22                	je     402ac2 <driver_post+0x2f>
  402aa0:	48 89 ce             	mov    %rcx,%rsi
  402aa3:	bf d5 33 40 00       	mov    $0x4033d5,%edi
  402aa8:	b8 00 00 00 00       	mov    $0x0,%eax
  402aad:	e8 ae e1 ff ff       	callq  400c60 <printf@plt>
  402ab2:	66 c7 03 4f 4b       	movw   $0x4b4f,(%rbx)
  402ab7:	c6 43 02 00          	movb   $0x0,0x2(%rbx)
  402abb:	b8 00 00 00 00       	mov    $0x0,%eax
  402ac0:	eb 39                	jmp    402afb <driver_post+0x68>
  402ac2:	48 85 ff             	test   %rdi,%rdi
  402ac5:	74 26                	je     402aed <driver_post+0x5a>
  402ac7:	80 3f 00             	cmpb   $0x0,(%rdi)
  402aca:	74 21                	je     402aed <driver_post+0x5a>
  402acc:	4c 89 0c 24          	mov    %r9,(%rsp)
  402ad0:	49 89 c9             	mov    %rcx,%r9
  402ad3:	49 89 d0             	mov    %rdx,%r8
  402ad6:	48 89 f9             	mov    %rdi,%rcx
  402ad9:	48 89 f2             	mov    %rsi,%rdx
  402adc:	be b1 36 00 00       	mov    $0x36b1,%esi
  402ae1:	bf 12 2f 40 00       	mov    $0x402f12,%edi
  402ae6:	e8 50 f5 ff ff       	callq  40203b <submitr>
  402aeb:	eb 0e                	jmp    402afb <driver_post+0x68>
  402aed:	66 c7 03 4f 4b       	movw   $0x4b4f,(%rbx)
  402af2:	c6 43 02 00          	movb   $0x0,0x2(%rbx)
  402af6:	b8 00 00 00 00       	mov    $0x0,%eax
  402afb:	48 83 c4 10          	add    $0x10,%rsp
  402aff:	5b                   	pop    %rbx
  402b00:	c3                   	retq   
  402b01:	66 2e 0f 1f 84 00 00 	nopw   %cs:0x0(%rax,%rax,1)
  402b08:	00 00 00 
  402b0b:	0f 1f 44 00 00       	nopl   0x0(%rax,%rax,1)

0000000000402b10 <check>:
  402b10:	89 fa                	mov    %edi,%edx
  402b12:	c1 ea 1c             	shr    $0x1c,%edx
  402b15:	b8 00 00 00 00       	mov    $0x0,%eax
  402b1a:	85 d2                	test   %edx,%edx
  402b1c:	74 2e                	je     402b4c <check+0x3c>
  402b1e:	40 80 ff 0a          	cmp    $0xa,%dil
  402b22:	74 17                	je     402b3b <check+0x2b>
  402b24:	b9 08 00 00 00       	mov    $0x8,%ecx
  402b29:	89 f8                	mov    %edi,%eax
  402b2b:	d3 e8                	shr    %cl,%eax
  402b2d:	3c 0a                	cmp    $0xa,%al
  402b2f:	74 10                	je     402b41 <check+0x31>
  402b31:	83 c1 08             	add    $0x8,%ecx
  402b34:	83 f9 20             	cmp    $0x20,%ecx
  402b37:	75 f0                	jne    402b29 <check+0x19>
  402b39:	eb 0c                	jmp    402b47 <check+0x37>
  402b3b:	b8 00 00 00 00       	mov    $0x0,%eax
  402b40:	c3                   	retq   
  402b41:	b8 00 00 00 00       	mov    $0x0,%eax
  402b46:	c3                   	retq   
  402b47:	b8 01 00 00 00       	mov    $0x1,%eax
  402b4c:	f3 c3                	repz retq 

0000000000402b4e <gencookie>:
  402b4e:	53                   	push   %rbx
  402b4f:	83 c7 01             	add    $0x1,%edi
  402b52:	e8 a9 e0 ff ff       	callq  400c00 <srandom@plt>
  402b57:	e8 c4 e1 ff ff       	callq  400d20 <random@plt>
  402b5c:	89 c3                	mov    %eax,%ebx
  402b5e:	89 c7                	mov    %eax,%edi
  402b60:	e8 ab ff ff ff       	callq  402b10 <check>
  402b65:	85 c0                	test   %eax,%eax
  402b67:	74 ee                	je     402b57 <gencookie+0x9>
  402b69:	89 d8                	mov    %ebx,%eax
  402b6b:	5b                   	pop    %rbx
  402b6c:	c3                   	retq   
  402b6d:	0f 1f 00             	nopl   (%rax)

0000000000402b70 <__libc_csu_init>:
  402b70:	41 57                	push   %r15
  402b72:	41 89 ff             	mov    %edi,%r15d
  402b75:	41 56                	push   %r14
  402b77:	49 89 f6             	mov    %rsi,%r14
  402b7a:	41 55                	push   %r13
  402b7c:	49 89 d5             	mov    %rdx,%r13
  402b7f:	41 54                	push   %r12
  402b81:	4c 8d 25 88 12 20 00 	lea    0x201288(%rip),%r12        # 603e10 <__frame_dummy_init_array_entry>
  402b88:	55                   	push   %rbp
  402b89:	48 8d 2d 88 12 20 00 	lea    0x201288(%rip),%rbp        # 603e18 <__init_array_end>
  402b90:	53                   	push   %rbx
  402b91:	4c 29 e5             	sub    %r12,%rbp
  402b94:	31 db                	xor    %ebx,%ebx
  402b96:	48 c1 fd 03          	sar    $0x3,%rbp
  402b9a:	48 83 ec 08          	sub    $0x8,%rsp
  402b9e:	e8 0d e0 ff ff       	callq  400bb0 <_init>
  402ba3:	48 85 ed             	test   %rbp,%rbp
  402ba6:	74 1e                	je     402bc6 <__libc_csu_init+0x56>
  402ba8:	0f 1f 84 00 00 00 00 	nopl   0x0(%rax,%rax,1)
  402baf:	00 
  402bb0:	4c 89 ea             	mov    %r13,%rdx
  402bb3:	4c 89 f6             	mov    %r14,%rsi
  402bb6:	44 89 ff             	mov    %r15d,%edi
  402bb9:	41 ff 14 dc          	callq  *(%r12,%rbx,8)
  402bbd:	48 83 c3 01          	add    $0x1,%rbx
  402bc1:	48 39 eb             	cmp    %rbp,%rbx
  402bc4:	75 ea                	jne    402bb0 <__libc_csu_init+0x40>
  402bc6:	48 83 c4 08          	add    $0x8,%rsp
  402bca:	5b                   	pop    %rbx
  402bcb:	5d                   	pop    %rbp
  402bcc:	41 5c                	pop    %r12
  402bce:	41 5d                	pop    %r13
  402bd0:	41 5e                	pop    %r14
  402bd2:	41 5f                	pop    %r15
  402bd4:	c3                   	retq   
  402bd5:	90                   	nop
  402bd6:	66 2e 0f 1f 84 00 00 	nopw   %cs:0x0(%rax,%rax,1)
  402bdd:	00 00 00 

0000000000402be0 <__libc_csu_fini>:
  402be0:	f3 c3                	repz retq 

Disassembly of section .fini:

0000000000402be4 <_fini>:
  402be4:	48 83 ec 08          	sub    $0x8,%rsp
  402be8:	48 83 c4 08          	add    $0x8,%rsp
  402bec:	c3                   	retq   
