
rtarget:     file format elf64-x86-64


Disassembly of section .init:

0000000000400bb0 <_init>:
  400bb0:	48 83 ec 08          	sub    $0x8,%rsp
  400bb4:	48 8b 05 3d 44 20 00 	mov    0x20443d(%rip),%rax        # 604ff8 <__gmon_start__>
  400bbb:	48 85 c0             	test   %rax,%rax
  400bbe:	74 05                	je     400bc5 <_init+0x15>
  400bc0:	e8 2b 02 00 00       	callq  400df0 <.plt.got>
  400bc5:	48 83 c4 08          	add    $0x8,%rsp
  400bc9:	c3                   	retq   

Disassembly of section .plt:

0000000000400bd0 <.plt>:
  400bd0:	ff 35 32 44 20 00    	pushq  0x204432(%rip)        # 605008 <_GLOBAL_OFFSET_TABLE_+0x8>
  400bd6:	ff 25 34 44 20 00    	jmpq   *0x204434(%rip)        # 605010 <_GLOBAL_OFFSET_TABLE_+0x10>
  400bdc:	0f 1f 40 00          	nopl   0x0(%rax)

0000000000400be0 <strcasecmp@plt>:
  400be0:	ff 25 32 44 20 00    	jmpq   *0x204432(%rip)        # 605018 <strcasecmp@GLIBC_2.2.5>
  400be6:	68 00 00 00 00       	pushq  $0x0
  400beb:	e9 e0 ff ff ff       	jmpq   400bd0 <.plt>

0000000000400bf0 <__errno_location@plt>:
  400bf0:	ff 25 2a 44 20 00    	jmpq   *0x20442a(%rip)        # 605020 <__errno_location@GLIBC_2.2.5>
  400bf6:	68 01 00 00 00       	pushq  $0x1
  400bfb:	e9 d0 ff ff ff       	jmpq   400bd0 <.plt>

0000000000400c00 <srandom@plt>:
  400c00:	ff 25 22 44 20 00    	jmpq   *0x204422(%rip)        # 605028 <srandom@GLIBC_2.2.5>
  400c06:	68 02 00 00 00       	pushq  $0x2
  400c0b:	e9 c0 ff ff ff       	jmpq   400bd0 <.plt>

0000000000400c10 <strncmp@plt>:
  400c10:	ff 25 1a 44 20 00    	jmpq   *0x20441a(%rip)        # 605030 <strncmp@GLIBC_2.2.5>
  400c16:	68 03 00 00 00       	pushq  $0x3
  400c1b:	e9 b0 ff ff ff       	jmpq   400bd0 <.plt>

0000000000400c20 <strcpy@plt>:
  400c20:	ff 25 12 44 20 00    	jmpq   *0x204412(%rip)        # 605038 <strcpy@GLIBC_2.2.5>
  400c26:	68 04 00 00 00       	pushq  $0x4
  400c2b:	e9 a0 ff ff ff       	jmpq   400bd0 <.plt>

0000000000400c30 <puts@plt>:
  400c30:	ff 25 0a 44 20 00    	jmpq   *0x20440a(%rip)        # 605040 <puts@GLIBC_2.2.5>
  400c36:	68 05 00 00 00       	pushq  $0x5
  400c3b:	e9 90 ff ff ff       	jmpq   400bd0 <.plt>

0000000000400c40 <write@plt>:
  400c40:	ff 25 02 44 20 00    	jmpq   *0x204402(%rip)        # 605048 <write@GLIBC_2.2.5>
  400c46:	68 06 00 00 00       	pushq  $0x6
  400c4b:	e9 80 ff ff ff       	jmpq   400bd0 <.plt>

0000000000400c50 <mmap@plt>:
  400c50:	ff 25 fa 43 20 00    	jmpq   *0x2043fa(%rip)        # 605050 <mmap@GLIBC_2.2.5>
  400c56:	68 07 00 00 00       	pushq  $0x7
  400c5b:	e9 70 ff ff ff       	jmpq   400bd0 <.plt>

0000000000400c60 <printf@plt>:
  400c60:	ff 25 f2 43 20 00    	jmpq   *0x2043f2(%rip)        # 605058 <printf@GLIBC_2.2.5>
  400c66:	68 08 00 00 00       	pushq  $0x8
  400c6b:	e9 60 ff ff ff       	jmpq   400bd0 <.plt>

0000000000400c70 <memset@plt>:
  400c70:	ff 25 ea 43 20 00    	jmpq   *0x2043ea(%rip)        # 605060 <memset@GLIBC_2.2.5>
  400c76:	68 09 00 00 00       	pushq  $0x9
  400c7b:	e9 50 ff ff ff       	jmpq   400bd0 <.plt>

0000000000400c80 <alarm@plt>:
  400c80:	ff 25 e2 43 20 00    	jmpq   *0x2043e2(%rip)        # 605068 <alarm@GLIBC_2.2.5>
  400c86:	68 0a 00 00 00       	pushq  $0xa
  400c8b:	e9 40 ff ff ff       	jmpq   400bd0 <.plt>

0000000000400c90 <close@plt>:
  400c90:	ff 25 da 43 20 00    	jmpq   *0x2043da(%rip)        # 605070 <close@GLIBC_2.2.5>
  400c96:	68 0b 00 00 00       	pushq  $0xb
  400c9b:	e9 30 ff ff ff       	jmpq   400bd0 <.plt>

0000000000400ca0 <read@plt>:
  400ca0:	ff 25 d2 43 20 00    	jmpq   *0x2043d2(%rip)        # 605078 <read@GLIBC_2.2.5>
  400ca6:	68 0c 00 00 00       	pushq  $0xc
  400cab:	e9 20 ff ff ff       	jmpq   400bd0 <.plt>

0000000000400cb0 <__libc_start_main@plt>:
  400cb0:	ff 25 ca 43 20 00    	jmpq   *0x2043ca(%rip)        # 605080 <__libc_start_main@GLIBC_2.2.5>
  400cb6:	68 0d 00 00 00       	pushq  $0xd
  400cbb:	e9 10 ff ff ff       	jmpq   400bd0 <.plt>

0000000000400cc0 <signal@plt>:
  400cc0:	ff 25 c2 43 20 00    	jmpq   *0x2043c2(%rip)        # 605088 <signal@GLIBC_2.2.5>
  400cc6:	68 0e 00 00 00       	pushq  $0xe
  400ccb:	e9 00 ff ff ff       	jmpq   400bd0 <.plt>

0000000000400cd0 <gethostbyname@plt>:
  400cd0:	ff 25 ba 43 20 00    	jmpq   *0x2043ba(%rip)        # 605090 <gethostbyname@GLIBC_2.2.5>
  400cd6:	68 0f 00 00 00       	pushq  $0xf
  400cdb:	e9 f0 fe ff ff       	jmpq   400bd0 <.plt>

0000000000400ce0 <fprintf@plt>:
  400ce0:	ff 25 b2 43 20 00    	jmpq   *0x2043b2(%rip)        # 605098 <fprintf@GLIBC_2.2.5>
  400ce6:	68 10 00 00 00       	pushq  $0x10
  400ceb:	e9 e0 fe ff ff       	jmpq   400bd0 <.plt>

0000000000400cf0 <strtol@plt>:
  400cf0:	ff 25 aa 43 20 00    	jmpq   *0x2043aa(%rip)        # 6050a0 <strtol@GLIBC_2.2.5>
  400cf6:	68 11 00 00 00       	pushq  $0x11
  400cfb:	e9 d0 fe ff ff       	jmpq   400bd0 <.plt>

0000000000400d00 <memcpy@plt>:
  400d00:	ff 25 a2 43 20 00    	jmpq   *0x2043a2(%rip)        # 6050a8 <memcpy@GLIBC_2.14>
  400d06:	68 12 00 00 00       	pushq  $0x12
  400d0b:	e9 c0 fe ff ff       	jmpq   400bd0 <.plt>

0000000000400d10 <time@plt>:
  400d10:	ff 25 9a 43 20 00    	jmpq   *0x20439a(%rip)        # 6050b0 <time@GLIBC_2.2.5>
  400d16:	68 13 00 00 00       	pushq  $0x13
  400d1b:	e9 b0 fe ff ff       	jmpq   400bd0 <.plt>

0000000000400d20 <random@plt>:
  400d20:	ff 25 92 43 20 00    	jmpq   *0x204392(%rip)        # 6050b8 <random@GLIBC_2.2.5>
  400d26:	68 14 00 00 00       	pushq  $0x14
  400d2b:	e9 a0 fe ff ff       	jmpq   400bd0 <.plt>

0000000000400d30 <_IO_getc@plt>:
  400d30:	ff 25 8a 43 20 00    	jmpq   *0x20438a(%rip)        # 6050c0 <_IO_getc@GLIBC_2.2.5>
  400d36:	68 15 00 00 00       	pushq  $0x15
  400d3b:	e9 90 fe ff ff       	jmpq   400bd0 <.plt>

0000000000400d40 <__isoc99_sscanf@plt>:
  400d40:	ff 25 82 43 20 00    	jmpq   *0x204382(%rip)        # 6050c8 <__isoc99_sscanf@GLIBC_2.7>
  400d46:	68 16 00 00 00       	pushq  $0x16
  400d4b:	e9 80 fe ff ff       	jmpq   400bd0 <.plt>

0000000000400d50 <munmap@plt>:
  400d50:	ff 25 7a 43 20 00    	jmpq   *0x20437a(%rip)        # 6050d0 <munmap@GLIBC_2.2.5>
  400d56:	68 17 00 00 00       	pushq  $0x17
  400d5b:	e9 70 fe ff ff       	jmpq   400bd0 <.plt>

0000000000400d60 <bcopy@plt>:
  400d60:	ff 25 72 43 20 00    	jmpq   *0x204372(%rip)        # 6050d8 <bcopy@GLIBC_2.2.5>
  400d66:	68 18 00 00 00       	pushq  $0x18
  400d6b:	e9 60 fe ff ff       	jmpq   400bd0 <.plt>

0000000000400d70 <fopen@plt>:
  400d70:	ff 25 6a 43 20 00    	jmpq   *0x20436a(%rip)        # 6050e0 <fopen@GLIBC_2.2.5>
  400d76:	68 19 00 00 00       	pushq  $0x19
  400d7b:	e9 50 fe ff ff       	jmpq   400bd0 <.plt>

0000000000400d80 <getopt@plt>:
  400d80:	ff 25 62 43 20 00    	jmpq   *0x204362(%rip)        # 6050e8 <getopt@GLIBC_2.2.5>
  400d86:	68 1a 00 00 00       	pushq  $0x1a
  400d8b:	e9 40 fe ff ff       	jmpq   400bd0 <.plt>

0000000000400d90 <strtoul@plt>:
  400d90:	ff 25 5a 43 20 00    	jmpq   *0x20435a(%rip)        # 6050f0 <strtoul@GLIBC_2.2.5>
  400d96:	68 1b 00 00 00       	pushq  $0x1b
  400d9b:	e9 30 fe ff ff       	jmpq   400bd0 <.plt>

0000000000400da0 <gethostname@plt>:
  400da0:	ff 25 52 43 20 00    	jmpq   *0x204352(%rip)        # 6050f8 <gethostname@GLIBC_2.2.5>
  400da6:	68 1c 00 00 00       	pushq  $0x1c
  400dab:	e9 20 fe ff ff       	jmpq   400bd0 <.plt>

0000000000400db0 <sprintf@plt>:
  400db0:	ff 25 4a 43 20 00    	jmpq   *0x20434a(%rip)        # 605100 <sprintf@GLIBC_2.2.5>
  400db6:	68 1d 00 00 00       	pushq  $0x1d
  400dbb:	e9 10 fe ff ff       	jmpq   400bd0 <.plt>

0000000000400dc0 <exit@plt>:
  400dc0:	ff 25 42 43 20 00    	jmpq   *0x204342(%rip)        # 605108 <exit@GLIBC_2.2.5>
  400dc6:	68 1e 00 00 00       	pushq  $0x1e
  400dcb:	e9 00 fe ff ff       	jmpq   400bd0 <.plt>

0000000000400dd0 <connect@plt>:
  400dd0:	ff 25 3a 43 20 00    	jmpq   *0x20433a(%rip)        # 605110 <connect@GLIBC_2.2.5>
  400dd6:	68 1f 00 00 00       	pushq  $0x1f
  400ddb:	e9 f0 fd ff ff       	jmpq   400bd0 <.plt>

0000000000400de0 <socket@plt>:
  400de0:	ff 25 32 43 20 00    	jmpq   *0x204332(%rip)        # 605118 <socket@GLIBC_2.2.5>
  400de6:	68 20 00 00 00       	pushq  $0x20
  400deb:	e9 e0 fd ff ff       	jmpq   400bd0 <.plt>

Disassembly of section .plt.got:

0000000000400df0 <.plt.got>:
  400df0:	ff 25 02 42 20 00    	jmpq   *0x204202(%rip)        # 604ff8 <__gmon_start__>
  400df6:	66 90                	xchg   %ax,%ax

Disassembly of section .text:

0000000000400e00 <_start>:
  400e00:	31 ed                	xor    %ebp,%ebp
  400e02:	49 89 d1             	mov    %rdx,%r9
  400e05:	5e                   	pop    %rsi
  400e06:	48 89 e2             	mov    %rsp,%rdx
  400e09:	48 83 e4 f0          	and    $0xfffffffffffffff0,%rsp
  400e0d:	50                   	push   %rax
  400e0e:	54                   	push   %rsp
  400e0f:	49 c7 c0 00 2d 40 00 	mov    $0x402d00,%r8
  400e16:	48 c7 c1 90 2c 40 00 	mov    $0x402c90,%rcx
  400e1d:	48 c7 c7 ba 10 40 00 	mov    $0x4010ba,%rdi
  400e24:	e8 87 fe ff ff       	callq  400cb0 <__libc_start_main@plt>
  400e29:	f4                   	hlt    
  400e2a:	66 0f 1f 44 00 00    	nopw   0x0(%rax,%rax,1)

0000000000400e30 <deregister_tm_clones>:
  400e30:	b8 97 54 60 00       	mov    $0x605497,%eax
  400e35:	55                   	push   %rbp
  400e36:	48 2d 90 54 60 00    	sub    $0x605490,%rax
  400e3c:	48 83 f8 0e          	cmp    $0xe,%rax
  400e40:	48 89 e5             	mov    %rsp,%rbp
  400e43:	77 02                	ja     400e47 <deregister_tm_clones+0x17>
  400e45:	5d                   	pop    %rbp
  400e46:	c3                   	retq   
  400e47:	b8 00 00 00 00       	mov    $0x0,%eax
  400e4c:	48 85 c0             	test   %rax,%rax
  400e4f:	74 f4                	je     400e45 <deregister_tm_clones+0x15>
  400e51:	5d                   	pop    %rbp
  400e52:	bf 90 54 60 00       	mov    $0x605490,%edi
  400e57:	ff e0                	jmpq   *%rax
  400e59:	0f 1f 80 00 00 00 00 	nopl   0x0(%rax)

0000000000400e60 <register_tm_clones>:
  400e60:	b8 90 54 60 00       	mov    $0x605490,%eax
  400e65:	55                   	push   %rbp
  400e66:	48 2d 90 54 60 00    	sub    $0x605490,%rax
  400e6c:	48 c1 f8 03          	sar    $0x3,%rax
  400e70:	48 89 e5             	mov    %rsp,%rbp
  400e73:	48 89 c2             	mov    %rax,%rdx
  400e76:	48 c1 ea 3f          	shr    $0x3f,%rdx
  400e7a:	48 01 d0             	add    %rdx,%rax
  400e7d:	48 d1 f8             	sar    %rax
  400e80:	75 02                	jne    400e84 <register_tm_clones+0x24>
  400e82:	5d                   	pop    %rbp
  400e83:	c3                   	retq   
  400e84:	ba 00 00 00 00       	mov    $0x0,%edx
  400e89:	48 85 d2             	test   %rdx,%rdx
  400e8c:	74 f4                	je     400e82 <register_tm_clones+0x22>
  400e8e:	5d                   	pop    %rbp
  400e8f:	48 89 c6             	mov    %rax,%rsi
  400e92:	bf 90 54 60 00       	mov    $0x605490,%edi
  400e97:	ff e2                	jmpq   *%rdx
  400e99:	0f 1f 80 00 00 00 00 	nopl   0x0(%rax)

0000000000400ea0 <__do_global_dtors_aux>:
  400ea0:	80 3d 11 46 20 00 00 	cmpb   $0x0,0x204611(%rip)        # 6054b8 <completed.6355>
  400ea7:	75 11                	jne    400eba <__do_global_dtors_aux+0x1a>
  400ea9:	55                   	push   %rbp
  400eaa:	48 89 e5             	mov    %rsp,%rbp
  400ead:	e8 7e ff ff ff       	callq  400e30 <deregister_tm_clones>
  400eb2:	5d                   	pop    %rbp
  400eb3:	c6 05 fe 45 20 00 01 	movb   $0x1,0x2045fe(%rip)        # 6054b8 <completed.6355>
  400eba:	f3 c3                	repz retq 
  400ebc:	0f 1f 40 00          	nopl   0x0(%rax)

0000000000400ec0 <frame_dummy>:
  400ec0:	48 83 3d 58 3f 20 00 	cmpq   $0x0,0x203f58(%rip)        # 604e20 <__JCR_END__>
  400ec7:	00 
  400ec8:	74 1e                	je     400ee8 <frame_dummy+0x28>
  400eca:	b8 00 00 00 00       	mov    $0x0,%eax
  400ecf:	48 85 c0             	test   %rax,%rax
  400ed2:	74 14                	je     400ee8 <frame_dummy+0x28>
  400ed4:	55                   	push   %rbp
  400ed5:	bf 20 4e 60 00       	mov    $0x604e20,%edi
  400eda:	48 89 e5             	mov    %rsp,%rbp
  400edd:	ff d0                	callq  *%rax
  400edf:	5d                   	pop    %rbp
  400ee0:	e9 7b ff ff ff       	jmpq   400e60 <register_tm_clones>
  400ee5:	0f 1f 00             	nopl   (%rax)
  400ee8:	e9 73 ff ff ff       	jmpq   400e60 <register_tm_clones>

0000000000400eed <usage>:
  400eed:	48 83 ec 08          	sub    $0x8,%rsp
  400ef1:	48 89 fe             	mov    %rdi,%rsi
  400ef4:	83 3d ed 45 20 00 00 	cmpl   $0x0,0x2045ed(%rip)        # 6054e8 <is_checker>
  400efb:	74 39                	je     400f36 <usage+0x49>
  400efd:	bf 20 2d 40 00       	mov    $0x402d20,%edi
  400f02:	b8 00 00 00 00       	mov    $0x0,%eax
  400f07:	e8 54 fd ff ff       	callq  400c60 <printf@plt>
  400f0c:	bf 58 2d 40 00       	mov    $0x402d58,%edi
  400f11:	e8 1a fd ff ff       	callq  400c30 <puts@plt>
  400f16:	bf d0 2e 40 00       	mov    $0x402ed0,%edi
  400f1b:	e8 10 fd ff ff       	callq  400c30 <puts@plt>
  400f20:	bf 80 2d 40 00       	mov    $0x402d80,%edi
  400f25:	e8 06 fd ff ff       	callq  400c30 <puts@plt>
  400f2a:	bf ea 2e 40 00       	mov    $0x402eea,%edi
  400f2f:	e8 fc fc ff ff       	callq  400c30 <puts@plt>
  400f34:	eb 2d                	jmp    400f63 <usage+0x76>
  400f36:	bf 06 2f 40 00       	mov    $0x402f06,%edi
  400f3b:	b8 00 00 00 00       	mov    $0x0,%eax
  400f40:	e8 1b fd ff ff       	callq  400c60 <printf@plt>
  400f45:	bf a8 2d 40 00       	mov    $0x402da8,%edi
  400f4a:	e8 e1 fc ff ff       	callq  400c30 <puts@plt>
  400f4f:	bf d0 2d 40 00       	mov    $0x402dd0,%edi
  400f54:	e8 d7 fc ff ff       	callq  400c30 <puts@plt>
  400f59:	bf 24 2f 40 00       	mov    $0x402f24,%edi
  400f5e:	e8 cd fc ff ff       	callq  400c30 <puts@plt>
  400f63:	bf 00 00 00 00       	mov    $0x0,%edi
  400f68:	e8 53 fe ff ff       	callq  400dc0 <exit@plt>

0000000000400f6d <initialize_target>:
  400f6d:	55                   	push   %rbp
  400f6e:	53                   	push   %rbx
  400f6f:	48 81 ec 08 21 00 00 	sub    $0x2108,%rsp
  400f76:	89 f5                	mov    %esi,%ebp
  400f78:	89 3d 5a 45 20 00    	mov    %edi,0x20455a(%rip)        # 6054d8 <check_level>
  400f7e:	8b 3d c4 41 20 00    	mov    0x2041c4(%rip),%edi        # 605148 <target_id>
  400f84:	e8 e5 1c 00 00       	callq  402c6e <gencookie>
  400f89:	89 05 55 45 20 00    	mov    %eax,0x204555(%rip)        # 6054e4 <cookie>
  400f8f:	89 c7                	mov    %eax,%edi
  400f91:	e8 d8 1c 00 00       	callq  402c6e <gencookie>
  400f96:	89 05 44 45 20 00    	mov    %eax,0x204544(%rip)        # 6054e0 <authkey>
  400f9c:	8b 05 a6 41 20 00    	mov    0x2041a6(%rip),%eax        # 605148 <target_id>
  400fa2:	8d 78 01             	lea    0x1(%rax),%edi
  400fa5:	e8 56 fc ff ff       	callq  400c00 <srandom@plt>
  400faa:	e8 71 fd ff ff       	callq  400d20 <random@plt>
  400faf:	89 c7                	mov    %eax,%edi
  400fb1:	e8 c5 02 00 00       	callq  40127b <scramble>
  400fb6:	89 c3                	mov    %eax,%ebx
  400fb8:	ba 00 00 00 00       	mov    $0x0,%edx
  400fbd:	85 ed                	test   %ebp,%ebp
  400fbf:	74 18                	je     400fd9 <initialize_target+0x6c>
  400fc1:	bf 00 00 00 00       	mov    $0x0,%edi
  400fc6:	e8 45 fd ff ff       	callq  400d10 <time@plt>
  400fcb:	89 c7                	mov    %eax,%edi
  400fcd:	e8 2e fc ff ff       	callq  400c00 <srandom@plt>
  400fd2:	e8 49 fd ff ff       	callq  400d20 <random@plt>
  400fd7:	89 c2                	mov    %eax,%edx
  400fd9:	01 da                	add    %ebx,%edx
  400fdb:	0f b7 d2             	movzwl %dx,%edx
  400fde:	8d 04 d5 00 01 00 00 	lea    0x100(,%rdx,8),%eax
  400fe5:	89 c0                	mov    %eax,%eax
  400fe7:	48 89 05 92 44 20 00 	mov    %rax,0x204492(%rip)        # 605480 <buf_offset>
  400fee:	c6 05 13 51 20 00 72 	movb   $0x72,0x205113(%rip)        # 606108 <target_prefix>
  400ff5:	83 3d 8c 44 20 00 00 	cmpl   $0x0,0x20448c(%rip)        # 605488 <notify>
  400ffc:	0f 84 ae 00 00 00    	je     4010b0 <initialize_target+0x143>
  401002:	83 3d df 44 20 00 00 	cmpl   $0x0,0x2044df(%rip)        # 6054e8 <is_checker>
  401009:	0f 85 a1 00 00 00    	jne    4010b0 <initialize_target+0x143>
  40100f:	be 00 01 00 00       	mov    $0x100,%esi
  401014:	48 89 e7             	mov    %rsp,%rdi
  401017:	e8 84 fd ff ff       	callq  400da0 <gethostname@plt>
  40101c:	85 c0                	test   %eax,%eax
  40101e:	75 13                	jne    401033 <initialize_target+0xc6>
  401020:	48 8b 3d 39 41 20 00 	mov    0x204139(%rip),%rdi        # 605160 <host_table>
  401027:	bb 68 51 60 00       	mov    $0x605168,%ebx
  40102c:	48 85 ff             	test   %rdi,%rdi
  40102f:	75 16                	jne    401047 <initialize_target+0xda>
  401031:	eb 50                	jmp    401083 <initialize_target+0x116>
  401033:	bf 00 2e 40 00       	mov    $0x402e00,%edi
  401038:	e8 f3 fb ff ff       	callq  400c30 <puts@plt>
  40103d:	bf 08 00 00 00       	mov    $0x8,%edi
  401042:	e8 79 fd ff ff       	callq  400dc0 <exit@plt>
  401047:	48 89 e6             	mov    %rsp,%rsi
  40104a:	e8 91 fb ff ff       	callq  400be0 <strcasecmp@plt>
  40104f:	85 c0                	test   %eax,%eax
  401051:	74 4c                	je     40109f <initialize_target+0x132>
  401053:	48 83 c3 08          	add    $0x8,%rbx
  401057:	48 8b 7b f8          	mov    -0x8(%rbx),%rdi
  40105b:	48 85 ff             	test   %rdi,%rdi
  40105e:	75 e7                	jne    401047 <initialize_target+0xda>
  401060:	eb 21                	jmp    401083 <initialize_target+0x116>
  401062:	48 8d b4 24 00 01 00 	lea    0x100(%rsp),%rsi
  401069:	00 
  40106a:	bf 38 2e 40 00       	mov    $0x402e38,%edi
  40106f:	b8 00 00 00 00       	mov    $0x0,%eax
  401074:	e8 e7 fb ff ff       	callq  400c60 <printf@plt>
  401079:	bf 08 00 00 00       	mov    $0x8,%edi
  40107e:	e8 3d fd ff ff       	callq  400dc0 <exit@plt>
  401083:	48 89 e6             	mov    %rsp,%rsi
  401086:	bf 60 2e 40 00       	mov    $0x402e60,%edi
  40108b:	b8 00 00 00 00       	mov    $0x0,%eax
  401090:	e8 cb fb ff ff       	callq  400c60 <printf@plt>
  401095:	bf 08 00 00 00       	mov    $0x8,%edi
  40109a:	e8 21 fd ff ff       	callq  400dc0 <exit@plt>
  40109f:	48 8d bc 24 00 01 00 	lea    0x100(%rsp),%rdi
  4010a6:	00 
  4010a7:	e8 3e 19 00 00       	callq  4029ea <init_driver>
  4010ac:	85 c0                	test   %eax,%eax
  4010ae:	78 b2                	js     401062 <initialize_target+0xf5>
  4010b0:	48 81 c4 08 21 00 00 	add    $0x2108,%rsp
  4010b7:	5b                   	pop    %rbx
  4010b8:	5d                   	pop    %rbp
  4010b9:	c3                   	retq   

00000000004010ba <main>:
  4010ba:	41 56                	push   %r14
  4010bc:	41 55                	push   %r13
  4010be:	41 54                	push   %r12
  4010c0:	55                   	push   %rbp
  4010c1:	53                   	push   %rbx
  4010c2:	41 89 fc             	mov    %edi,%r12d
  4010c5:	48 89 f3             	mov    %rsi,%rbx
  4010c8:	be fd 1d 40 00       	mov    $0x401dfd,%esi
  4010cd:	bf 0b 00 00 00       	mov    $0xb,%edi
  4010d2:	e8 e9 fb ff ff       	callq  400cc0 <signal@plt>
  4010d7:	be af 1d 40 00       	mov    $0x401daf,%esi
  4010dc:	bf 07 00 00 00       	mov    $0x7,%edi
  4010e1:	e8 da fb ff ff       	callq  400cc0 <signal@plt>
  4010e6:	be 4b 1e 40 00       	mov    $0x401e4b,%esi
  4010eb:	bf 04 00 00 00       	mov    $0x4,%edi
  4010f0:	e8 cb fb ff ff       	callq  400cc0 <signal@plt>
  4010f5:	bd 3d 2f 40 00       	mov    $0x402f3d,%ebp
  4010fa:	83 3d e7 43 20 00 00 	cmpl   $0x0,0x2043e7(%rip)        # 6054e8 <is_checker>
  401101:	74 1e                	je     401121 <main+0x67>
  401103:	be 99 1e 40 00       	mov    $0x401e99,%esi
  401108:	bf 0e 00 00 00       	mov    $0xe,%edi
  40110d:	e8 ae fb ff ff       	callq  400cc0 <signal@plt>
  401112:	bf 05 00 00 00       	mov    $0x5,%edi
  401117:	e8 64 fb ff ff       	callq  400c80 <alarm@plt>
  40111c:	bd 42 2f 40 00       	mov    $0x402f42,%ebp
  401121:	48 8b 05 78 43 20 00 	mov    0x204378(%rip),%rax        # 6054a0 <stdin@@GLIBC_2.2.5>
  401128:	48 89 05 a1 43 20 00 	mov    %rax,0x2043a1(%rip)        # 6054d0 <infile>
  40112f:	41 bd 00 00 00 00    	mov    $0x0,%r13d
  401135:	41 be 00 00 00 00    	mov    $0x0,%r14d
  40113b:	e9 b9 00 00 00       	jmpq   4011f9 <main+0x13f>
  401140:	83 e8 61             	sub    $0x61,%eax
  401143:	3c 10                	cmp    $0x10,%al
  401145:	0f 87 93 00 00 00    	ja     4011de <main+0x124>
  40114b:	0f b6 c0             	movzbl %al,%eax
  40114e:	ff 24 c5 88 2f 40 00 	jmpq   *0x402f88(,%rax,8)
  401155:	48 8b 3b             	mov    (%rbx),%rdi
  401158:	e8 90 fd ff ff       	callq  400eed <usage>
  40115d:	be f5 31 40 00       	mov    $0x4031f5,%esi
  401162:	48 8b 3d 3f 43 20 00 	mov    0x20433f(%rip),%rdi        # 6054a8 <optarg@@GLIBC_2.2.5>
  401169:	e8 02 fc ff ff       	callq  400d70 <fopen@plt>
  40116e:	48 89 05 5b 43 20 00 	mov    %rax,0x20435b(%rip)        # 6054d0 <infile>
  401175:	48 85 c0             	test   %rax,%rax
  401178:	75 7f                	jne    4011f9 <main+0x13f>
  40117a:	48 8b 15 27 43 20 00 	mov    0x204327(%rip),%rdx        # 6054a8 <optarg@@GLIBC_2.2.5>
  401181:	be 4a 2f 40 00       	mov    $0x402f4a,%esi
  401186:	48 8b 3d 23 43 20 00 	mov    0x204323(%rip),%rdi        # 6054b0 <stderr@@GLIBC_2.2.5>
  40118d:	e8 4e fb ff ff       	callq  400ce0 <fprintf@plt>
  401192:	b8 01 00 00 00       	mov    $0x1,%eax
  401197:	e9 d6 00 00 00       	jmpq   401272 <main+0x1b8>
  40119c:	ba 10 00 00 00       	mov    $0x10,%edx
  4011a1:	be 00 00 00 00       	mov    $0x0,%esi
  4011a6:	48 8b 3d fb 42 20 00 	mov    0x2042fb(%rip),%rdi        # 6054a8 <optarg@@GLIBC_2.2.5>
  4011ad:	e8 de fb ff ff       	callq  400d90 <strtoul@plt>
  4011b2:	41 89 c6             	mov    %eax,%r14d
  4011b5:	eb 42                	jmp    4011f9 <main+0x13f>
  4011b7:	ba 0a 00 00 00       	mov    $0xa,%edx
  4011bc:	be 00 00 00 00       	mov    $0x0,%esi
  4011c1:	48 8b 3d e0 42 20 00 	mov    0x2042e0(%rip),%rdi        # 6054a8 <optarg@@GLIBC_2.2.5>
  4011c8:	e8 23 fb ff ff       	callq  400cf0 <strtol@plt>
  4011cd:	41 89 c5             	mov    %eax,%r13d
  4011d0:	eb 27                	jmp    4011f9 <main+0x13f>
  4011d2:	c7 05 ac 42 20 00 00 	movl   $0x0,0x2042ac(%rip)        # 605488 <notify>
  4011d9:	00 00 00 
  4011dc:	eb 1b                	jmp    4011f9 <main+0x13f>
  4011de:	40 0f be f6          	movsbl %sil,%esi
  4011e2:	bf 67 2f 40 00       	mov    $0x402f67,%edi
  4011e7:	b8 00 00 00 00       	mov    $0x0,%eax
  4011ec:	e8 6f fa ff ff       	callq  400c60 <printf@plt>
  4011f1:	48 8b 3b             	mov    (%rbx),%rdi
  4011f4:	e8 f4 fc ff ff       	callq  400eed <usage>
  4011f9:	48 89 ea             	mov    %rbp,%rdx
  4011fc:	48 89 de             	mov    %rbx,%rsi
  4011ff:	44 89 e7             	mov    %r12d,%edi
  401202:	e8 79 fb ff ff       	callq  400d80 <getopt@plt>
  401207:	89 c6                	mov    %eax,%esi
  401209:	3c ff                	cmp    $0xff,%al
  40120b:	0f 85 2f ff ff ff    	jne    401140 <main+0x86>
  401211:	be 01 00 00 00       	mov    $0x1,%esi
  401216:	44 89 ef             	mov    %r13d,%edi
  401219:	e8 4f fd ff ff       	callq  400f6d <initialize_target>
  40121e:	83 3d c3 42 20 00 00 	cmpl   $0x0,0x2042c3(%rip)        # 6054e8 <is_checker>
  401225:	74 25                	je     40124c <main+0x192>
  401227:	44 3b 35 b2 42 20 00 	cmp    0x2042b2(%rip),%r14d        # 6054e0 <authkey>
  40122e:	74 1c                	je     40124c <main+0x192>
  401230:	44 89 f6             	mov    %r14d,%esi
  401233:	bf a0 2e 40 00       	mov    $0x402ea0,%edi
  401238:	b8 00 00 00 00       	mov    $0x0,%eax
  40123d:	e8 1e fa ff ff       	callq  400c60 <printf@plt>
  401242:	b8 00 00 00 00       	mov    $0x0,%eax
  401247:	e8 c9 07 00 00       	callq  401a15 <check_fail>
  40124c:	8b 35 92 42 20 00    	mov    0x204292(%rip),%esi        # 6054e4 <cookie>
  401252:	bf 7a 2f 40 00       	mov    $0x402f7a,%edi
  401257:	b8 00 00 00 00       	mov    $0x0,%eax
  40125c:	e8 ff f9 ff ff       	callq  400c60 <printf@plt>
  401261:	48 8b 3d 18 42 20 00 	mov    0x204218(%rip),%rdi        # 605480 <buf_offset>
  401268:	e8 7a 0c 00 00       	callq  401ee7 <launch>
  40126d:	b8 00 00 00 00       	mov    $0x0,%eax
  401272:	5b                   	pop    %rbx
  401273:	5d                   	pop    %rbp
  401274:	41 5c                	pop    %r12
  401276:	41 5d                	pop    %r13
  401278:	41 5e                	pop    %r14
  40127a:	c3                   	retq   

000000000040127b <scramble>:
  40127b:	b8 00 00 00 00       	mov    $0x0,%eax
  401280:	89 c2                	mov    %eax,%edx
  401282:	89 7c 94 d0          	mov    %edi,-0x30(%rsp,%rdx,4)
  401286:	83 c0 01             	add    $0x1,%eax
  401289:	81 c7 8f 1f 00 00    	add    $0x1f8f,%edi
  40128f:	83 f8 0a             	cmp    $0xa,%eax
  401292:	75 ec                	jne    401280 <scramble+0x5>
  401294:	8b 44 24 f0          	mov    -0x10(%rsp),%eax
  401298:	69 c0 f9 b4 00 00    	imul   $0xb4f9,%eax,%eax
  40129e:	89 44 24 f0          	mov    %eax,-0x10(%rsp)
  4012a2:	8b 44 24 f4          	mov    -0xc(%rsp),%eax
  4012a6:	69 c0 83 de 00 00    	imul   $0xde83,%eax,%eax
  4012ac:	89 44 24 f4          	mov    %eax,-0xc(%rsp)
  4012b0:	8b 44 24 d4          	mov    -0x2c(%rsp),%eax
  4012b4:	69 c0 ae 0b 00 00    	imul   $0xbae,%eax,%eax
  4012ba:	89 44 24 d4          	mov    %eax,-0x2c(%rsp)
  4012be:	8b 44 24 d8          	mov    -0x28(%rsp),%eax
  4012c2:	69 c0 59 b1 00 00    	imul   $0xb159,%eax,%eax
  4012c8:	89 44 24 d8          	mov    %eax,-0x28(%rsp)
  4012cc:	8b 44 24 f4          	mov    -0xc(%rsp),%eax
  4012d0:	69 c0 cb d1 00 00    	imul   $0xd1cb,%eax,%eax
  4012d6:	89 44 24 f4          	mov    %eax,-0xc(%rsp)
  4012da:	8b 44 24 dc          	mov    -0x24(%rsp),%eax
  4012de:	69 c0 38 0f 00 00    	imul   $0xf38,%eax,%eax
  4012e4:	89 44 24 dc          	mov    %eax,-0x24(%rsp)
  4012e8:	8b 44 24 e0          	mov    -0x20(%rsp),%eax
  4012ec:	69 c0 66 af 00 00    	imul   $0xaf66,%eax,%eax
  4012f2:	89 44 24 e0          	mov    %eax,-0x20(%rsp)
  4012f6:	8b 44 24 d4          	mov    -0x2c(%rsp),%eax
  4012fa:	69 c0 aa cd 00 00    	imul   $0xcdaa,%eax,%eax
  401300:	89 44 24 d4          	mov    %eax,-0x2c(%rsp)
  401304:	8b 44 24 e4          	mov    -0x1c(%rsp),%eax
  401308:	69 c0 64 97 00 00    	imul   $0x9764,%eax,%eax
  40130e:	89 44 24 e4          	mov    %eax,-0x1c(%rsp)
  401312:	8b 44 24 ec          	mov    -0x14(%rsp),%eax
  401316:	69 c0 24 dc 00 00    	imul   $0xdc24,%eax,%eax
  40131c:	89 44 24 ec          	mov    %eax,-0x14(%rsp)
  401320:	8b 44 24 f0          	mov    -0x10(%rsp),%eax
  401324:	69 c0 d1 15 00 00    	imul   $0x15d1,%eax,%eax
  40132a:	89 44 24 f0          	mov    %eax,-0x10(%rsp)
  40132e:	8b 44 24 d4          	mov    -0x2c(%rsp),%eax
  401332:	69 c0 bd 37 00 00    	imul   $0x37bd,%eax,%eax
  401338:	89 44 24 d4          	mov    %eax,-0x2c(%rsp)
  40133c:	8b 44 24 e0          	mov    -0x20(%rsp),%eax
  401340:	69 c0 bb 1e 00 00    	imul   $0x1ebb,%eax,%eax
  401346:	89 44 24 e0          	mov    %eax,-0x20(%rsp)
  40134a:	8b 44 24 ec          	mov    -0x14(%rsp),%eax
  40134e:	69 c0 9f 14 00 00    	imul   $0x149f,%eax,%eax
  401354:	89 44 24 ec          	mov    %eax,-0x14(%rsp)
  401358:	8b 44 24 dc          	mov    -0x24(%rsp),%eax
  40135c:	69 c0 e2 93 00 00    	imul   $0x93e2,%eax,%eax
  401362:	89 44 24 dc          	mov    %eax,-0x24(%rsp)
  401366:	8b 44 24 e4          	mov    -0x1c(%rsp),%eax
  40136a:	69 c0 be 03 00 00    	imul   $0x3be,%eax,%eax
  401370:	89 44 24 e4          	mov    %eax,-0x1c(%rsp)
  401374:	8b 44 24 f0          	mov    -0x10(%rsp),%eax
  401378:	69 c0 34 23 00 00    	imul   $0x2334,%eax,%eax
  40137e:	89 44 24 f0          	mov    %eax,-0x10(%rsp)
  401382:	8b 44 24 f0          	mov    -0x10(%rsp),%eax
  401386:	69 c0 4c 0d 00 00    	imul   $0xd4c,%eax,%eax
  40138c:	89 44 24 f0          	mov    %eax,-0x10(%rsp)
  401390:	8b 44 24 d4          	mov    -0x2c(%rsp),%eax
  401394:	69 c0 51 c8 00 00    	imul   $0xc851,%eax,%eax
  40139a:	89 44 24 d4          	mov    %eax,-0x2c(%rsp)
  40139e:	8b 44 24 d0          	mov    -0x30(%rsp),%eax
  4013a2:	69 c0 8a 0d 00 00    	imul   $0xd8a,%eax,%eax
  4013a8:	89 44 24 d0          	mov    %eax,-0x30(%rsp)
  4013ac:	8b 44 24 e8          	mov    -0x18(%rsp),%eax
  4013b0:	69 c0 1c 63 00 00    	imul   $0x631c,%eax,%eax
  4013b6:	89 44 24 e8          	mov    %eax,-0x18(%rsp)
  4013ba:	8b 44 24 d8          	mov    -0x28(%rsp),%eax
  4013be:	69 c0 47 1a 00 00    	imul   $0x1a47,%eax,%eax
  4013c4:	89 44 24 d8          	mov    %eax,-0x28(%rsp)
  4013c8:	8b 44 24 ec          	mov    -0x14(%rsp),%eax
  4013cc:	69 c0 6e 7c 00 00    	imul   $0x7c6e,%eax,%eax
  4013d2:	89 44 24 ec          	mov    %eax,-0x14(%rsp)
  4013d6:	8b 44 24 d4          	mov    -0x2c(%rsp),%eax
  4013da:	69 c0 95 84 00 00    	imul   $0x8495,%eax,%eax
  4013e0:	89 44 24 d4          	mov    %eax,-0x2c(%rsp)
  4013e4:	8b 44 24 e4          	mov    -0x1c(%rsp),%eax
  4013e8:	69 c0 8c ba 00 00    	imul   $0xba8c,%eax,%eax
  4013ee:	89 44 24 e4          	mov    %eax,-0x1c(%rsp)
  4013f2:	8b 44 24 d4          	mov    -0x2c(%rsp),%eax
  4013f6:	69 c0 dc 22 00 00    	imul   $0x22dc,%eax,%eax
  4013fc:	89 44 24 d4          	mov    %eax,-0x2c(%rsp)
  401400:	8b 44 24 f0          	mov    -0x10(%rsp),%eax
  401404:	69 c0 b8 94 00 00    	imul   $0x94b8,%eax,%eax
  40140a:	89 44 24 f0          	mov    %eax,-0x10(%rsp)
  40140e:	8b 44 24 e4          	mov    -0x1c(%rsp),%eax
  401412:	69 c0 34 bb 00 00    	imul   $0xbb34,%eax,%eax
  401418:	89 44 24 e4          	mov    %eax,-0x1c(%rsp)
  40141c:	8b 44 24 e0          	mov    -0x20(%rsp),%eax
  401420:	69 c0 a6 22 00 00    	imul   $0x22a6,%eax,%eax
  401426:	89 44 24 e0          	mov    %eax,-0x20(%rsp)
  40142a:	8b 44 24 d8          	mov    -0x28(%rsp),%eax
  40142e:	69 c0 a2 97 00 00    	imul   $0x97a2,%eax,%eax
  401434:	89 44 24 d8          	mov    %eax,-0x28(%rsp)
  401438:	8b 44 24 e4          	mov    -0x1c(%rsp),%eax
  40143c:	69 c0 fb 5e 00 00    	imul   $0x5efb,%eax,%eax
  401442:	89 44 24 e4          	mov    %eax,-0x1c(%rsp)
  401446:	8b 44 24 f4          	mov    -0xc(%rsp),%eax
  40144a:	69 c0 63 ff 00 00    	imul   $0xff63,%eax,%eax
  401450:	89 44 24 f4          	mov    %eax,-0xc(%rsp)
  401454:	8b 44 24 dc          	mov    -0x24(%rsp),%eax
  401458:	69 c0 a3 7d 00 00    	imul   $0x7da3,%eax,%eax
  40145e:	89 44 24 dc          	mov    %eax,-0x24(%rsp)
  401462:	8b 44 24 e8          	mov    -0x18(%rsp),%eax
  401466:	69 c0 11 b1 00 00    	imul   $0xb111,%eax,%eax
  40146c:	89 44 24 e8          	mov    %eax,-0x18(%rsp)
  401470:	8b 44 24 d8          	mov    -0x28(%rsp),%eax
  401474:	69 c0 54 cb 00 00    	imul   $0xcb54,%eax,%eax
  40147a:	89 44 24 d8          	mov    %eax,-0x28(%rsp)
  40147e:	8b 44 24 e8          	mov    -0x18(%rsp),%eax
  401482:	69 c0 10 e0 00 00    	imul   $0xe010,%eax,%eax
  401488:	89 44 24 e8          	mov    %eax,-0x18(%rsp)
  40148c:	8b 44 24 dc          	mov    -0x24(%rsp),%eax
  401490:	69 c0 5e db 00 00    	imul   $0xdb5e,%eax,%eax
  401496:	89 44 24 dc          	mov    %eax,-0x24(%rsp)
  40149a:	8b 44 24 d4          	mov    -0x2c(%rsp),%eax
  40149e:	69 c0 f2 40 00 00    	imul   $0x40f2,%eax,%eax
  4014a4:	89 44 24 d4          	mov    %eax,-0x2c(%rsp)
  4014a8:	8b 44 24 e4          	mov    -0x1c(%rsp),%eax
  4014ac:	69 c0 48 e2 00 00    	imul   $0xe248,%eax,%eax
  4014b2:	89 44 24 e4          	mov    %eax,-0x1c(%rsp)
  4014b6:	8b 44 24 e0          	mov    -0x20(%rsp),%eax
  4014ba:	69 c0 a0 6b 00 00    	imul   $0x6ba0,%eax,%eax
  4014c0:	89 44 24 e0          	mov    %eax,-0x20(%rsp)
  4014c4:	8b 44 24 e0          	mov    -0x20(%rsp),%eax
  4014c8:	69 c0 41 26 00 00    	imul   $0x2641,%eax,%eax
  4014ce:	89 44 24 e0          	mov    %eax,-0x20(%rsp)
  4014d2:	8b 44 24 f4          	mov    -0xc(%rsp),%eax
  4014d6:	69 c0 31 6d 00 00    	imul   $0x6d31,%eax,%eax
  4014dc:	89 44 24 f4          	mov    %eax,-0xc(%rsp)
  4014e0:	8b 44 24 dc          	mov    -0x24(%rsp),%eax
  4014e4:	69 c0 16 e9 00 00    	imul   $0xe916,%eax,%eax
  4014ea:	89 44 24 dc          	mov    %eax,-0x24(%rsp)
  4014ee:	8b 44 24 f0          	mov    -0x10(%rsp),%eax
  4014f2:	69 c0 6c 6e 00 00    	imul   $0x6e6c,%eax,%eax
  4014f8:	89 44 24 f0          	mov    %eax,-0x10(%rsp)
  4014fc:	8b 44 24 ec          	mov    -0x14(%rsp),%eax
  401500:	69 c0 39 f8 00 00    	imul   $0xf839,%eax,%eax
  401506:	89 44 24 ec          	mov    %eax,-0x14(%rsp)
  40150a:	8b 44 24 e4          	mov    -0x1c(%rsp),%eax
  40150e:	69 c0 44 c2 00 00    	imul   $0xc244,%eax,%eax
  401514:	89 44 24 e4          	mov    %eax,-0x1c(%rsp)
  401518:	8b 44 24 f4          	mov    -0xc(%rsp),%eax
  40151c:	69 c0 70 a1 00 00    	imul   $0xa170,%eax,%eax
  401522:	89 44 24 f4          	mov    %eax,-0xc(%rsp)
  401526:	8b 44 24 f4          	mov    -0xc(%rsp),%eax
  40152a:	69 c0 64 d9 00 00    	imul   $0xd964,%eax,%eax
  401530:	89 44 24 f4          	mov    %eax,-0xc(%rsp)
  401534:	8b 44 24 e8          	mov    -0x18(%rsp),%eax
  401538:	69 c0 56 ce 00 00    	imul   $0xce56,%eax,%eax
  40153e:	89 44 24 e8          	mov    %eax,-0x18(%rsp)
  401542:	8b 44 24 f0          	mov    -0x10(%rsp),%eax
  401546:	69 c0 07 65 00 00    	imul   $0x6507,%eax,%eax
  40154c:	89 44 24 f0          	mov    %eax,-0x10(%rsp)
  401550:	8b 44 24 e4          	mov    -0x1c(%rsp),%eax
  401554:	69 c0 12 49 00 00    	imul   $0x4912,%eax,%eax
  40155a:	89 44 24 e4          	mov    %eax,-0x1c(%rsp)
  40155e:	8b 44 24 f0          	mov    -0x10(%rsp),%eax
  401562:	69 c0 1a c8 00 00    	imul   $0xc81a,%eax,%eax
  401568:	89 44 24 f0          	mov    %eax,-0x10(%rsp)
  40156c:	8b 44 24 e0          	mov    -0x20(%rsp),%eax
  401570:	69 c0 6e 3f 00 00    	imul   $0x3f6e,%eax,%eax
  401576:	89 44 24 e0          	mov    %eax,-0x20(%rsp)
  40157a:	8b 44 24 d8          	mov    -0x28(%rsp),%eax
  40157e:	69 c0 3d 7c 00 00    	imul   $0x7c3d,%eax,%eax
  401584:	89 44 24 d8          	mov    %eax,-0x28(%rsp)
  401588:	8b 44 24 e4          	mov    -0x1c(%rsp),%eax
  40158c:	69 c0 94 ce 00 00    	imul   $0xce94,%eax,%eax
  401592:	89 44 24 e4          	mov    %eax,-0x1c(%rsp)
  401596:	8b 44 24 dc          	mov    -0x24(%rsp),%eax
  40159a:	69 c0 8a be 00 00    	imul   $0xbe8a,%eax,%eax
  4015a0:	89 44 24 dc          	mov    %eax,-0x24(%rsp)
  4015a4:	8b 44 24 ec          	mov    -0x14(%rsp),%eax
  4015a8:	69 c0 5a 76 00 00    	imul   $0x765a,%eax,%eax
  4015ae:	89 44 24 ec          	mov    %eax,-0x14(%rsp)
  4015b2:	8b 44 24 f0          	mov    -0x10(%rsp),%eax
  4015b6:	69 c0 ce af 00 00    	imul   $0xafce,%eax,%eax
  4015bc:	89 44 24 f0          	mov    %eax,-0x10(%rsp)
  4015c0:	8b 44 24 e8          	mov    -0x18(%rsp),%eax
  4015c4:	69 c0 20 54 00 00    	imul   $0x5420,%eax,%eax
  4015ca:	89 44 24 e8          	mov    %eax,-0x18(%rsp)
  4015ce:	8b 44 24 f0          	mov    -0x10(%rsp),%eax
  4015d2:	69 c0 2d 6b 00 00    	imul   $0x6b2d,%eax,%eax
  4015d8:	89 44 24 f0          	mov    %eax,-0x10(%rsp)
  4015dc:	8b 44 24 d4          	mov    -0x2c(%rsp),%eax
  4015e0:	69 c0 49 24 00 00    	imul   $0x2449,%eax,%eax
  4015e6:	89 44 24 d4          	mov    %eax,-0x2c(%rsp)
  4015ea:	8b 44 24 f4          	mov    -0xc(%rsp),%eax
  4015ee:	69 c0 8f a3 00 00    	imul   $0xa38f,%eax,%eax
  4015f4:	89 44 24 f4          	mov    %eax,-0xc(%rsp)
  4015f8:	8b 44 24 d4          	mov    -0x2c(%rsp),%eax
  4015fc:	69 c0 19 ef 00 00    	imul   $0xef19,%eax,%eax
  401602:	89 44 24 d4          	mov    %eax,-0x2c(%rsp)
  401606:	8b 44 24 e4          	mov    -0x1c(%rsp),%eax
  40160a:	69 c0 cc e4 00 00    	imul   $0xe4cc,%eax,%eax
  401610:	89 44 24 e4          	mov    %eax,-0x1c(%rsp)
  401614:	8b 44 24 e4          	mov    -0x1c(%rsp),%eax
  401618:	69 c0 69 07 00 00    	imul   $0x769,%eax,%eax
  40161e:	89 44 24 e4          	mov    %eax,-0x1c(%rsp)
  401622:	8b 44 24 ec          	mov    -0x14(%rsp),%eax
  401626:	69 c0 1a 57 00 00    	imul   $0x571a,%eax,%eax
  40162c:	89 44 24 ec          	mov    %eax,-0x14(%rsp)
  401630:	8b 44 24 d0          	mov    -0x30(%rsp),%eax
  401634:	69 c0 ea 8e 00 00    	imul   $0x8eea,%eax,%eax
  40163a:	89 44 24 d0          	mov    %eax,-0x30(%rsp)
  40163e:	8b 44 24 d8          	mov    -0x28(%rsp),%eax
  401642:	69 c0 ec 74 00 00    	imul   $0x74ec,%eax,%eax
  401648:	89 44 24 d8          	mov    %eax,-0x28(%rsp)
  40164c:	8b 44 24 f4          	mov    -0xc(%rsp),%eax
  401650:	69 c0 41 28 00 00    	imul   $0x2841,%eax,%eax
  401656:	89 44 24 f4          	mov    %eax,-0xc(%rsp)
  40165a:	8b 44 24 ec          	mov    -0x14(%rsp),%eax
  40165e:	69 c0 0e f0 00 00    	imul   $0xf00e,%eax,%eax
  401664:	89 44 24 ec          	mov    %eax,-0x14(%rsp)
  401668:	8b 44 24 e0          	mov    -0x20(%rsp),%eax
  40166c:	69 c0 07 d9 00 00    	imul   $0xd907,%eax,%eax
  401672:	89 44 24 e0          	mov    %eax,-0x20(%rsp)
  401676:	8b 44 24 f4          	mov    -0xc(%rsp),%eax
  40167a:	69 c0 aa eb 00 00    	imul   $0xebaa,%eax,%eax
  401680:	89 44 24 f4          	mov    %eax,-0xc(%rsp)
  401684:	8b 44 24 e0          	mov    -0x20(%rsp),%eax
  401688:	69 c0 53 da 00 00    	imul   $0xda53,%eax,%eax
  40168e:	89 44 24 e0          	mov    %eax,-0x20(%rsp)
  401692:	8b 44 24 d8          	mov    -0x28(%rsp),%eax
  401696:	69 c0 d1 ae 00 00    	imul   $0xaed1,%eax,%eax
  40169c:	89 44 24 d8          	mov    %eax,-0x28(%rsp)
  4016a0:	8b 44 24 e8          	mov    -0x18(%rsp),%eax
  4016a4:	69 c0 b2 b9 00 00    	imul   $0xb9b2,%eax,%eax
  4016aa:	89 44 24 e8          	mov    %eax,-0x18(%rsp)
  4016ae:	8b 44 24 f0          	mov    -0x10(%rsp),%eax
  4016b2:	69 c0 ce 7a 00 00    	imul   $0x7ace,%eax,%eax
  4016b8:	89 44 24 f0          	mov    %eax,-0x10(%rsp)
  4016bc:	8b 44 24 ec          	mov    -0x14(%rsp),%eax
  4016c0:	69 c0 70 47 00 00    	imul   $0x4770,%eax,%eax
  4016c6:	89 44 24 ec          	mov    %eax,-0x14(%rsp)
  4016ca:	8b 44 24 d4          	mov    -0x2c(%rsp),%eax
  4016ce:	69 c0 b5 a3 00 00    	imul   $0xa3b5,%eax,%eax
  4016d4:	89 44 24 d4          	mov    %eax,-0x2c(%rsp)
  4016d8:	8b 44 24 e8          	mov    -0x18(%rsp),%eax
  4016dc:	69 c0 50 9b 00 00    	imul   $0x9b50,%eax,%eax
  4016e2:	89 44 24 e8          	mov    %eax,-0x18(%rsp)
  4016e6:	8b 44 24 d0          	mov    -0x30(%rsp),%eax
  4016ea:	69 c0 f8 f3 00 00    	imul   $0xf3f8,%eax,%eax
  4016f0:	89 44 24 d0          	mov    %eax,-0x30(%rsp)
  4016f4:	8b 44 24 e8          	mov    -0x18(%rsp),%eax
  4016f8:	69 c0 55 d2 00 00    	imul   $0xd255,%eax,%eax
  4016fe:	89 44 24 e8          	mov    %eax,-0x18(%rsp)
  401702:	8b 44 24 e0          	mov    -0x20(%rsp),%eax
  401706:	69 c0 35 f3 00 00    	imul   $0xf335,%eax,%eax
  40170c:	89 44 24 e0          	mov    %eax,-0x20(%rsp)
  401710:	8b 44 24 ec          	mov    -0x14(%rsp),%eax
  401714:	69 c0 47 6a 00 00    	imul   $0x6a47,%eax,%eax
  40171a:	89 44 24 ec          	mov    %eax,-0x14(%rsp)
  40171e:	8b 44 24 e0          	mov    -0x20(%rsp),%eax
  401722:	69 c0 98 2f 00 00    	imul   $0x2f98,%eax,%eax
  401728:	89 44 24 e0          	mov    %eax,-0x20(%rsp)
  40172c:	8b 44 24 e4          	mov    -0x1c(%rsp),%eax
  401730:	69 c0 4b 59 00 00    	imul   $0x594b,%eax,%eax
  401736:	89 44 24 e4          	mov    %eax,-0x1c(%rsp)
  40173a:	ba 00 00 00 00       	mov    $0x0,%edx
  40173f:	b8 00 00 00 00       	mov    $0x0,%eax
  401744:	89 d1                	mov    %edx,%ecx
  401746:	8b 4c 8c d0          	mov    -0x30(%rsp,%rcx,4),%ecx
  40174a:	01 c8                	add    %ecx,%eax
  40174c:	83 c2 01             	add    $0x1,%edx
  40174f:	83 fa 0a             	cmp    $0xa,%edx
  401752:	75 f0                	jne    401744 <scramble+0x4c9>
  401754:	f3 c3                	repz retq 

0000000000401756 <getbuf>:
  401756:	48 83 ec 28          	sub    $0x28,%rsp
  40175a:	48 89 e7             	mov    %rsp,%rdi
  40175d:	e8 e2 02 00 00       	callq  401a44 <Gets>
  401762:	b8 01 00 00 00       	mov    $0x1,%eax
  401767:	48 83 c4 28          	add    $0x28,%rsp
  40176b:	c3                   	retq   

000000000040176c <touch1>:
  40176c:	48 83 ec 08          	sub    $0x8,%rsp
  401770:	c7 05 62 3d 20 00 01 	movl   $0x1,0x203d62(%rip)        # 6054dc <vlevel>
  401777:	00 00 00 
  40177a:	bf 4b 30 40 00       	mov    $0x40304b,%edi
  40177f:	e8 ac f4 ff ff       	callq  400c30 <puts@plt>
  401784:	bf 01 00 00 00       	mov    $0x1,%edi
  401789:	e8 3d 05 00 00       	callq  401ccb <validate>
  40178e:	bf 00 00 00 00       	mov    $0x0,%edi
  401793:	e8 28 f6 ff ff       	callq  400dc0 <exit@plt>

0000000000401798 <touch2>:
  401798:	48 83 ec 08          	sub    $0x8,%rsp
  40179c:	89 fe                	mov    %edi,%esi
  40179e:	c7 05 34 3d 20 00 02 	movl   $0x2,0x203d34(%rip)        # 6054dc <vlevel>
  4017a5:	00 00 00 
  4017a8:	3b 3d 36 3d 20 00    	cmp    0x203d36(%rip),%edi        # 6054e4 <cookie>
  4017ae:	75 1b                	jne    4017cb <touch2+0x33>
  4017b0:	bf 70 30 40 00       	mov    $0x403070,%edi
  4017b5:	b8 00 00 00 00       	mov    $0x0,%eax
  4017ba:	e8 a1 f4 ff ff       	callq  400c60 <printf@plt>
  4017bf:	bf 02 00 00 00       	mov    $0x2,%edi
  4017c4:	e8 02 05 00 00       	callq  401ccb <validate>
  4017c9:	eb 19                	jmp    4017e4 <touch2+0x4c>
  4017cb:	bf 98 30 40 00       	mov    $0x403098,%edi
  4017d0:	b8 00 00 00 00       	mov    $0x0,%eax
  4017d5:	e8 86 f4 ff ff       	callq  400c60 <printf@plt>
  4017da:	bf 02 00 00 00       	mov    $0x2,%edi
  4017df:	e8 a3 05 00 00       	callq  401d87 <fail>
  4017e4:	bf 00 00 00 00       	mov    $0x0,%edi
  4017e9:	e8 d2 f5 ff ff       	callq  400dc0 <exit@plt>

00000000004017ee <hexmatch>:
  4017ee:	41 54                	push   %r12
  4017f0:	55                   	push   %rbp
  4017f1:	53                   	push   %rbx
  4017f2:	48 83 ec 70          	sub    $0x70,%rsp
  4017f6:	41 89 fc             	mov    %edi,%r12d
  4017f9:	48 89 f5             	mov    %rsi,%rbp
  4017fc:	e8 1f f5 ff ff       	callq  400d20 <random@plt>
  401801:	48 89 c1             	mov    %rax,%rcx
  401804:	48 ba 0b d7 a3 70 3d 	movabs $0xa3d70a3d70a3d70b,%rdx
  40180b:	0a d7 a3 
  40180e:	48 f7 ea             	imul   %rdx
  401811:	48 8d 04 0a          	lea    (%rdx,%rcx,1),%rax
  401815:	48 c1 f8 06          	sar    $0x6,%rax
  401819:	48 89 ce             	mov    %rcx,%rsi
  40181c:	48 c1 fe 3f          	sar    $0x3f,%rsi
  401820:	48 29 f0             	sub    %rsi,%rax
  401823:	48 8d 04 80          	lea    (%rax,%rax,4),%rax
  401827:	48 8d 04 80          	lea    (%rax,%rax,4),%rax
  40182b:	48 c1 e0 02          	shl    $0x2,%rax
  40182f:	48 29 c1             	sub    %rax,%rcx
  401832:	48 8d 1c 0c          	lea    (%rsp,%rcx,1),%rbx
  401836:	44 89 e2             	mov    %r12d,%edx
  401839:	be 68 30 40 00       	mov    $0x403068,%esi
  40183e:	48 89 df             	mov    %rbx,%rdi
  401841:	b8 00 00 00 00       	mov    $0x0,%eax
  401846:	e8 65 f5 ff ff       	callq  400db0 <sprintf@plt>
  40184b:	ba 09 00 00 00       	mov    $0x9,%edx
  401850:	48 89 de             	mov    %rbx,%rsi
  401853:	48 89 ef             	mov    %rbp,%rdi
  401856:	e8 b5 f3 ff ff       	callq  400c10 <strncmp@plt>
  40185b:	85 c0                	test   %eax,%eax
  40185d:	0f 94 c0             	sete   %al
  401860:	0f b6 c0             	movzbl %al,%eax
  401863:	48 83 c4 70          	add    $0x70,%rsp
  401867:	5b                   	pop    %rbx
  401868:	5d                   	pop    %rbp
  401869:	41 5c                	pop    %r12
  40186b:	c3                   	retq   

000000000040186c <touch3>:
  40186c:	53                   	push   %rbx
  40186d:	48 89 fb             	mov    %rdi,%rbx
  401870:	c7 05 62 3c 20 00 03 	movl   $0x3,0x203c62(%rip)        # 6054dc <vlevel>
  401877:	00 00 00 
  40187a:	48 89 fe             	mov    %rdi,%rsi
  40187d:	8b 3d 61 3c 20 00    	mov    0x203c61(%rip),%edi        # 6054e4 <cookie>
  401883:	e8 66 ff ff ff       	callq  4017ee <hexmatch>
  401888:	85 c0                	test   %eax,%eax
  40188a:	74 1e                	je     4018aa <touch3+0x3e>
  40188c:	48 89 de             	mov    %rbx,%rsi
  40188f:	bf c0 30 40 00       	mov    $0x4030c0,%edi
  401894:	b8 00 00 00 00       	mov    $0x0,%eax
  401899:	e8 c2 f3 ff ff       	callq  400c60 <printf@plt>
  40189e:	bf 03 00 00 00       	mov    $0x3,%edi
  4018a3:	e8 23 04 00 00       	callq  401ccb <validate>
  4018a8:	eb 1c                	jmp    4018c6 <touch3+0x5a>
  4018aa:	48 89 de             	mov    %rbx,%rsi
  4018ad:	bf e8 30 40 00       	mov    $0x4030e8,%edi
  4018b2:	b8 00 00 00 00       	mov    $0x0,%eax
  4018b7:	e8 a4 f3 ff ff       	callq  400c60 <printf@plt>
  4018bc:	bf 03 00 00 00       	mov    $0x3,%edi
  4018c1:	e8 c1 04 00 00       	callq  401d87 <fail>
  4018c6:	bf 00 00 00 00       	mov    $0x0,%edi
  4018cb:	e8 f0 f4 ff ff       	callq  400dc0 <exit@plt>

00000000004018d0 <test>:
  4018d0:	48 83 ec 08          	sub    $0x8,%rsp
  4018d4:	b8 00 00 00 00       	mov    $0x0,%eax
  4018d9:	e8 78 fe ff ff       	callq  401756 <getbuf>
  4018de:	89 c6                	mov    %eax,%esi
  4018e0:	bf 10 31 40 00       	mov    $0x403110,%edi
  4018e5:	b8 00 00 00 00       	mov    $0x0,%eax
  4018ea:	e8 71 f3 ff ff       	callq  400c60 <printf@plt>
  4018ef:	48 83 c4 08          	add    $0x8,%rsp
  4018f3:	c3                   	retq   

00000000004018f4 <start_farm>:
  4018f4:	b8 01 00 00 00       	mov    $0x1,%eax
  4018f9:	c3                   	retq   

00000000004018fa <addval_424>:
  4018fa:	8d 87 a7 50 90 c3    	lea    -0x3c6faf59(%rdi),%eax
  401900:	c3                   	retq   

0000000000401901 <getval_130>:
  401901:	b8 d8 c3 76 0f       	mov    $0xf76c3d8,%eax
  401906:	c3                   	retq   

0000000000401907 <addval_232>:
  401907:	8d 87 48 89 c7 90    	lea    -0x6f3876b8(%rdi),%eax
  40190d:	c3                   	retq   

000000000040190e <getval_104>:
  40190e:	b8 48 89 c7 c3       	mov    $0xc3c78948,%eax
  401913:	c3                   	retq   

0000000000401914 <addval_489>:
  401914:	8d 87 db 48 81 c7    	lea    -0x387eb725(%rdi),%eax
  40191a:	c3                   	retq   

000000000040191b <setval_484>:
  40191b:	c7 07 58 90 90 c3    	movl   $0xc3909058,(%rdi)
  401921:	c3                   	retq   

0000000000401922 <addval_375>:
  401922:	8d 87 58 90 90 c3    	lea    -0x3c6f6fa8(%rdi),%eax
  401928:	c3                   	retq   

0000000000401929 <addval_499>:
  401929:	8d 87 4a 89 c7 c3    	lea    -0x3c3876b6(%rdi),%eax
  40192f:	c3                   	retq   

0000000000401930 <mid_farm>:
  401930:	b8 01 00 00 00       	mov    $0x1,%eax
  401935:	c3                   	retq   

0000000000401936 <add_xy>:
  401936:	48 8d 04 37          	lea    (%rdi,%rsi,1),%rax
  40193a:	c3                   	retq   

000000000040193b <getval_265>:
  40193b:	b8 5d 89 d6 90       	mov    $0x90d6895d,%eax
  401940:	c3                   	retq   

0000000000401941 <getval_350>:
  401941:	b8 89 c1 c4 d2       	mov    $0xd2c4c189,%eax
  401946:	c3                   	retq   

0000000000401947 <setval_200>:
  401947:	c7 07 48 89 e0 c1    	movl   $0xc1e08948,(%rdi)
  40194d:	c3                   	retq   

000000000040194e <setval_339>:
  40194e:	c7 07 89 ca 18 c9    	movl   $0xc918ca89,(%rdi)
  401954:	c3                   	retq   

0000000000401955 <setval_390>:
  401955:	c7 07 81 d6 08 db    	movl   $0xdb08d681,(%rdi)
  40195b:	c3                   	retq   

000000000040195c <getval_108>:
  40195c:	b8 48 89 e0 c2       	mov    $0xc2e08948,%eax
  401961:	c3                   	retq   

0000000000401962 <getval_332>:
  401962:	b8 48 89 e0 c3       	mov    $0xc3e08948,%eax
  401967:	c3                   	retq   

0000000000401968 <addval_235>:
  401968:	8d 87 ca e3 89 c1    	lea    -0x3e761c36(%rdi),%eax
  40196e:	c3                   	retq   

000000000040196f <addval_154>:
  40196f:	8d 87 89 d6 18 c0    	lea    -0x3fe72977(%rdi),%eax
  401975:	c3                   	retq   

0000000000401976 <addval_374>:
  401976:	8d 87 8b d6 08 c0    	lea    -0x3ff72975(%rdi),%eax
  40197c:	c3                   	retq   

000000000040197d <getval_465>:
  40197d:	b8 89 c1 18 d2       	mov    $0xd218c189,%eax
  401982:	c3                   	retq   

0000000000401983 <setval_300>:
  401983:	c7 07 89 c1 c2 de    	movl   $0xdec2c189,(%rdi)
  401989:	c3                   	retq   

000000000040198a <addval_389>:
  40198a:	8d 87 8d d6 84 d2    	lea    -0x2d7b2973(%rdi),%eax
  401990:	c3                   	retq   

0000000000401991 <addval_352>:
  401991:	8d 87 89 ca c3 73    	lea    0x73c3ca89(%rdi),%eax
  401997:	c3                   	retq   

0000000000401998 <setval_233>:
  401998:	c7 07 48 89 e0 c7    	movl   $0xc7e08948,(%rdi)
  40199e:	c3                   	retq   

000000000040199f <setval_471>:
  40199f:	c7 07 09 ca 08 d2    	movl   $0xd208ca09,(%rdi)
  4019a5:	c3                   	retq   

00000000004019a6 <addval_393>:
  4019a6:	8d 87 89 d6 78 c9    	lea    -0x36872977(%rdi),%eax
  4019ac:	c3                   	retq   

00000000004019ad <setval_417>:
  4019ad:	c7 07 48 89 e0 c7    	movl   $0xc7e08948,(%rdi)
  4019b3:	c3                   	retq   

00000000004019b4 <getval_451>:
  4019b4:	b8 89 ca 90 c3       	mov    $0xc390ca89,%eax
  4019b9:	c3                   	retq   

00000000004019ba <setval_480>:
  4019ba:	c7 07 89 c1 30 db    	movl   $0xdb30c189,(%rdi)
  4019c0:	c3                   	retq   

00000000004019c1 <addval_242>:
  4019c1:	8d 87 89 ca 28 d2    	lea    -0x2dd73577(%rdi),%eax
  4019c7:	c3                   	retq   

00000000004019c8 <getval_475>:
  4019c8:	b8 99 ca 08 d2       	mov    $0xd208ca99,%eax
  4019cd:	c3                   	retq   

00000000004019ce <getval_435>:
  4019ce:	b8 09 ca 38 c9       	mov    $0xc938ca09,%eax
  4019d3:	c3                   	retq   

00000000004019d4 <setval_256>:
  4019d4:	c7 07 12 4c 89 e0    	movl   $0xe0894c12,(%rdi)
  4019da:	c3                   	retq   

00000000004019db <setval_481>:
  4019db:	c7 07 f8 89 ca 91    	movl   $0x91ca89f8,(%rdi)
  4019e1:	c3                   	retq   

00000000004019e2 <getval_228>:
  4019e2:	b8 88 48 99 e0       	mov    $0xe0994888,%eax
  4019e7:	c3                   	retq   

00000000004019e8 <addval_149>:
  4019e8:	8d 87 89 c1 48 d2    	lea    -0x2db73e77(%rdi),%eax
  4019ee:	c3                   	retq   

00000000004019ef <addval_397>:
  4019ef:	8d 87 11 81 c1 c3    	lea    -0x3c3e7eef(%rdi),%eax
  4019f5:	c3                   	retq   

00000000004019f6 <setval_421>:
  4019f6:	c7 07 55 e0 a9 d6    	movl   $0xd6a9e055,(%rdi)
  4019fc:	c3                   	retq   

00000000004019fd <getval_196>:
  4019fd:	b8 89 d6 84 c9       	mov    $0xc984d689,%eax
  401a02:	c3                   	retq   

0000000000401a03 <getval_174>:
  401a03:	b8 14 89 c1 c3       	mov    $0xc3c18914,%eax
  401a08:	c3                   	retq   

0000000000401a09 <getval_262>:
  401a09:	b8 48 89 e0 c3       	mov    $0xc3e08948,%eax
  401a0e:	c3                   	retq   

0000000000401a0f <end_farm>:
  401a0f:	b8 01 00 00 00       	mov    $0x1,%eax
  401a14:	c3                   	retq   

0000000000401a15 <check_fail>:
  401a15:	48 83 ec 08          	sub    $0x8,%rsp
  401a19:	0f be 35 e8 46 20 00 	movsbl 0x2046e8(%rip),%esi        # 606108 <target_prefix>
  401a20:	b9 00 55 60 00       	mov    $0x605500,%ecx
  401a25:	8b 15 ad 3a 20 00    	mov    0x203aad(%rip),%edx        # 6054d8 <check_level>
  401a2b:	bf 33 31 40 00       	mov    $0x403133,%edi
  401a30:	b8 00 00 00 00       	mov    $0x0,%eax
  401a35:	e8 26 f2 ff ff       	callq  400c60 <printf@plt>
  401a3a:	bf 01 00 00 00       	mov    $0x1,%edi
  401a3f:	e8 7c f3 ff ff       	callq  400dc0 <exit@plt>

0000000000401a44 <Gets>:
  401a44:	55                   	push   %rbp
  401a45:	53                   	push   %rbx
  401a46:	48 83 ec 08          	sub    $0x8,%rsp
  401a4a:	48 89 fd             	mov    %rdi,%rbp
  401a4d:	c7 05 ad 46 20 00 00 	movl   $0x0,0x2046ad(%rip)        # 606104 <gets_cnt>
  401a54:	00 00 00 
  401a57:	48 89 fb             	mov    %rdi,%rbx
  401a5a:	eb 5f                	jmp    401abb <Gets+0x77>
  401a5c:	48 83 c3 01          	add    $0x1,%rbx
  401a60:	88 43 ff             	mov    %al,-0x1(%rbx)
  401a63:	8b 0d 9b 46 20 00    	mov    0x20469b(%rip),%ecx        # 606104 <gets_cnt>
  401a69:	81 f9 ff 03 00 00    	cmp    $0x3ff,%ecx
  401a6f:	7f 4a                	jg     401abb <Gets+0x77>
  401a71:	0f b6 d0             	movzbl %al,%edx
  401a74:	8d 34 49             	lea    (%rcx,%rcx,2),%esi
  401a77:	48 63 c6             	movslq %esi,%rax
  401a7a:	89 d7                	mov    %edx,%edi
  401a7c:	c1 ef 04             	shr    $0x4,%edi
  401a7f:	48 63 ff             	movslq %edi,%rdi
  401a82:	0f b6 bf 30 34 40 00 	movzbl 0x403430(%rdi),%edi
  401a89:	40 88 b8 00 55 60 00 	mov    %dil,0x605500(%rax)
  401a90:	8d 46 01             	lea    0x1(%rsi),%eax
  401a93:	48 98                	cltq   
  401a95:	83 e2 0f             	and    $0xf,%edx
  401a98:	0f b6 92 30 34 40 00 	movzbl 0x403430(%rdx),%edx
  401a9f:	88 90 00 55 60 00    	mov    %dl,0x605500(%rax)
  401aa5:	83 c6 02             	add    $0x2,%esi
  401aa8:	48 63 f6             	movslq %esi,%rsi
  401aab:	c6 86 00 55 60 00 20 	movb   $0x20,0x605500(%rsi)
  401ab2:	83 c1 01             	add    $0x1,%ecx
  401ab5:	89 0d 49 46 20 00    	mov    %ecx,0x204649(%rip)        # 606104 <gets_cnt>
  401abb:	48 8b 3d 0e 3a 20 00 	mov    0x203a0e(%rip),%rdi        # 6054d0 <infile>
  401ac2:	e8 69 f2 ff ff       	callq  400d30 <_IO_getc@plt>
  401ac7:	83 f8 ff             	cmp    $0xffffffff,%eax
  401aca:	74 05                	je     401ad1 <Gets+0x8d>
  401acc:	83 f8 0a             	cmp    $0xa,%eax
  401acf:	75 8b                	jne    401a5c <Gets+0x18>
  401ad1:	c6 03 00             	movb   $0x0,(%rbx)
  401ad4:	8b 05 2a 46 20 00    	mov    0x20462a(%rip),%eax        # 606104 <gets_cnt>
  401ada:	8d 04 40             	lea    (%rax,%rax,2),%eax
  401add:	48 98                	cltq   
  401adf:	c6 80 00 55 60 00 00 	movb   $0x0,0x605500(%rax)
  401ae6:	48 89 e8             	mov    %rbp,%rax
  401ae9:	48 83 c4 08          	add    $0x8,%rsp
  401aed:	5b                   	pop    %rbx
  401aee:	5d                   	pop    %rbp
  401aef:	c3                   	retq   

0000000000401af0 <notify_server>:
  401af0:	83 3d f1 39 20 00 00 	cmpl   $0x0,0x2039f1(%rip)        # 6054e8 <is_checker>
  401af7:	0f 85 cc 01 00 00    	jne    401cc9 <notify_server+0x1d9>
  401afd:	48 81 ec 18 40 00 00 	sub    $0x4018,%rsp
  401b04:	8b 05 fa 45 20 00    	mov    0x2045fa(%rip),%eax        # 606104 <gets_cnt>
  401b0a:	83 c0 64             	add    $0x64,%eax
  401b0d:	3d 00 20 00 00       	cmp    $0x2000,%eax
  401b12:	7e 19                	jle    401b2d <notify_server+0x3d>
  401b14:	bf 68 32 40 00       	mov    $0x403268,%edi
  401b19:	b8 00 00 00 00       	mov    $0x0,%eax
  401b1e:	e8 3d f1 ff ff       	callq  400c60 <printf@plt>
  401b23:	bf 01 00 00 00       	mov    $0x1,%edi
  401b28:	e8 93 f2 ff ff       	callq  400dc0 <exit@plt>
  401b2d:	44 0f be 0d d3 45 20 	movsbl 0x2045d3(%rip),%r9d        # 606108 <target_prefix>
  401b34:	00 
  401b35:	83 3d 4c 39 20 00 00 	cmpl   $0x0,0x20394c(%rip)        # 605488 <notify>
  401b3c:	b8 ff ff ff ff       	mov    $0xffffffff,%eax
  401b41:	0f 45 05 98 39 20 00 	cmovne 0x203998(%rip),%eax        # 6054e0 <authkey>
  401b48:	41 89 c0             	mov    %eax,%r8d
  401b4b:	85 ff                	test   %edi,%edi
  401b4d:	0f 85 f0 00 00 00    	jne    401c43 <notify_server+0x153>
  401b53:	e9 a9 00 00 00       	jmpq   401c01 <notify_server+0x111>
  401b58:	48 8d 74 24 10       	lea    0x10(%rsp),%rsi
  401b5d:	bf 53 31 40 00       	mov    $0x403153,%edi
  401b62:	b8 00 00 00 00       	mov    $0x0,%eax
  401b67:	e8 f4 f0 ff ff       	callq  400c60 <printf@plt>
  401b6c:	bf 01 00 00 00       	mov    $0x1,%edi
  401b71:	e8 4a f2 ff ff       	callq  400dc0 <exit@plt>
  401b76:	bf 98 32 40 00       	mov    $0x403298,%edi
  401b7b:	e8 b0 f0 ff ff       	callq  400c30 <puts@plt>
  401b80:	bf 5f 31 40 00       	mov    $0x40315f,%edi
  401b85:	e8 a6 f0 ff ff       	callq  400c30 <puts@plt>
  401b8a:	e9 33 01 00 00       	jmpq   401cc2 <notify_server+0x1d2>
  401b8f:	be 49 31 40 00       	mov    $0x403149,%esi
  401b94:	bf d0 32 40 00       	mov    $0x4032d0,%edi
  401b99:	b8 00 00 00 00       	mov    $0x0,%eax
  401b9e:	e8 bd f0 ff ff       	callq  400c60 <printf@plt>
  401ba3:	48 8b 35 96 35 20 00 	mov    0x203596(%rip),%rsi        # 605140 <user_id>
  401baa:	bf 69 31 40 00       	mov    $0x403169,%edi
  401baf:	b8 00 00 00 00       	mov    $0x0,%eax
  401bb4:	e8 a7 f0 ff ff       	callq  400c60 <printf@plt>
  401bb9:	48 8b 35 98 35 20 00 	mov    0x203598(%rip),%rsi        # 605158 <course>
  401bc0:	bf 76 31 40 00       	mov    $0x403176,%edi
  401bc5:	b8 00 00 00 00       	mov    $0x0,%eax
  401bca:	e8 91 f0 ff ff       	callq  400c60 <printf@plt>
  401bcf:	48 8b 35 7a 35 20 00 	mov    0x20357a(%rip),%rsi        # 605150 <lab>
  401bd6:	bf 82 31 40 00       	mov    $0x403182,%edi
  401bdb:	b8 00 00 00 00       	mov    $0x0,%eax
  401be0:	e8 7b f0 ff ff       	callq  400c60 <printf@plt>
  401be5:	48 8d b4 24 10 20 00 	lea    0x2010(%rsp),%rsi
  401bec:	00 
  401bed:	bf 8b 31 40 00       	mov    $0x40318b,%edi
  401bf2:	b8 00 00 00 00       	mov    $0x0,%eax
  401bf7:	e8 64 f0 ff ff       	callq  400c60 <printf@plt>
  401bfc:	e9 c1 00 00 00       	jmpq   401cc2 <notify_server+0x1d2>
  401c01:	48 c7 44 24 08 00 55 	movq   $0x605500,0x8(%rsp)
  401c08:	60 00 
  401c0a:	89 34 24             	mov    %esi,(%rsp)
  401c0d:	b9 4e 31 40 00       	mov    $0x40314e,%ecx
  401c12:	8b 15 30 35 20 00    	mov    0x203530(%rip),%edx        # 605148 <target_id>
  401c18:	be 97 31 40 00       	mov    $0x403197,%esi
  401c1d:	48 8d bc 24 10 20 00 	lea    0x2010(%rsp),%rdi
  401c24:	00 
  401c25:	b8 00 00 00 00       	mov    $0x0,%eax
  401c2a:	e8 81 f1 ff ff       	callq  400db0 <sprintf@plt>
  401c2f:	be 4e 31 40 00       	mov    $0x40314e,%esi
  401c34:	83 3d 4d 38 20 00 00 	cmpl   $0x0,0x20384d(%rip)        # 605488 <notify>
  401c3b:	0f 84 53 ff ff ff    	je     401b94 <notify_server+0xa4>
  401c41:	eb 75                	jmp    401cb8 <notify_server+0x1c8>
  401c43:	48 c7 44 24 08 00 55 	movq   $0x605500,0x8(%rsp)
  401c4a:	60 00 
  401c4c:	89 34 24             	mov    %esi,(%rsp)
  401c4f:	b9 49 31 40 00       	mov    $0x403149,%ecx
  401c54:	8b 15 ee 34 20 00    	mov    0x2034ee(%rip),%edx        # 605148 <target_id>
  401c5a:	be 97 31 40 00       	mov    $0x403197,%esi
  401c5f:	48 8d bc 24 10 20 00 	lea    0x2010(%rsp),%rdi
  401c66:	00 
  401c67:	b8 00 00 00 00       	mov    $0x0,%eax
  401c6c:	e8 3f f1 ff ff       	callq  400db0 <sprintf@plt>
  401c71:	83 3d 10 38 20 00 00 	cmpl   $0x0,0x203810(%rip)        # 605488 <notify>
  401c78:	0f 84 11 ff ff ff    	je     401b8f <notify_server+0x9f>
  401c7e:	4c 8d 4c 24 10       	lea    0x10(%rsp),%r9
  401c83:	41 b8 00 00 00 00    	mov    $0x0,%r8d
  401c89:	48 8d 8c 24 10 20 00 	lea    0x2010(%rsp),%rcx
  401c90:	00 
  401c91:	48 8b 15 b8 34 20 00 	mov    0x2034b8(%rip),%rdx        # 605150 <lab>
  401c98:	48 8b 35 b9 34 20 00 	mov    0x2034b9(%rip),%rsi        # 605158 <course>
  401c9f:	48 8b 3d 9a 34 20 00 	mov    0x20349a(%rip),%rdi        # 605140 <user_id>
  401ca6:	e8 08 0f 00 00       	callq  402bb3 <driver_post>
  401cab:	85 c0                	test   %eax,%eax
  401cad:	0f 89 c3 fe ff ff    	jns    401b76 <notify_server+0x86>
  401cb3:	e9 a0 fe ff ff       	jmpq   401b58 <notify_server+0x68>
  401cb8:	bf b3 31 40 00       	mov    $0x4031b3,%edi
  401cbd:	e8 6e ef ff ff       	callq  400c30 <puts@plt>
  401cc2:	48 81 c4 18 40 00 00 	add    $0x4018,%rsp
  401cc9:	f3 c3                	repz retq 

0000000000401ccb <validate>:
  401ccb:	55                   	push   %rbp
  401ccc:	53                   	push   %rbx
  401ccd:	48 83 ec 08          	sub    $0x8,%rsp
  401cd1:	89 fb                	mov    %edi,%ebx
  401cd3:	83 3d 0e 38 20 00 00 	cmpl   $0x0,0x20380e(%rip)        # 6054e8 <is_checker>
  401cda:	74 5e                	je     401d3a <validate+0x6f>
  401cdc:	8b 15 fa 37 20 00    	mov    0x2037fa(%rip),%edx        # 6054dc <vlevel>
  401ce2:	39 fa                	cmp    %edi,%edx
  401ce4:	74 14                	je     401cfa <validate+0x2f>
  401ce6:	bf ba 31 40 00       	mov    $0x4031ba,%edi
  401ceb:	e8 40 ef ff ff       	callq  400c30 <puts@plt>
  401cf0:	b8 00 00 00 00       	mov    $0x0,%eax
  401cf5:	e8 1b fd ff ff       	callq  401a15 <check_fail>
  401cfa:	8b 35 d8 37 20 00    	mov    0x2037d8(%rip),%esi        # 6054d8 <check_level>
  401d00:	39 f2                	cmp    %esi,%edx
  401d02:	74 19                	je     401d1d <validate+0x52>
  401d04:	bf f8 32 40 00       	mov    $0x4032f8,%edi
  401d09:	b8 00 00 00 00       	mov    $0x0,%eax
  401d0e:	e8 4d ef ff ff       	callq  400c60 <printf@plt>
  401d13:	b8 00 00 00 00       	mov    $0x0,%eax
  401d18:	e8 f8 fc ff ff       	callq  401a15 <check_fail>
  401d1d:	0f be 35 e4 43 20 00 	movsbl 0x2043e4(%rip),%esi        # 606108 <target_prefix>
  401d24:	b9 00 55 60 00       	mov    $0x605500,%ecx
  401d29:	bf d8 31 40 00       	mov    $0x4031d8,%edi
  401d2e:	b8 00 00 00 00       	mov    $0x0,%eax
  401d33:	e8 28 ef ff ff       	callq  400c60 <printf@plt>
  401d38:	eb 46                	jmp    401d80 <validate+0xb5>
  401d3a:	8b 2d 9c 37 20 00    	mov    0x20379c(%rip),%ebp        # 6054dc <vlevel>
  401d40:	39 fd                	cmp    %edi,%ebp
  401d42:	74 18                	je     401d5c <validate+0x91>
  401d44:	bf ba 31 40 00       	mov    $0x4031ba,%edi
  401d49:	e8 e2 ee ff ff       	callq  400c30 <puts@plt>
  401d4e:	89 de                	mov    %ebx,%esi
  401d50:	bf 00 00 00 00       	mov    $0x0,%edi
  401d55:	e8 96 fd ff ff       	callq  401af0 <notify_server>
  401d5a:	eb 24                	jmp    401d80 <validate+0xb5>
  401d5c:	0f be 15 a5 43 20 00 	movsbl 0x2043a5(%rip),%edx        # 606108 <target_prefix>
  401d63:	89 ee                	mov    %ebp,%esi
  401d65:	bf 20 33 40 00       	mov    $0x403320,%edi
  401d6a:	b8 00 00 00 00       	mov    $0x0,%eax
  401d6f:	e8 ec ee ff ff       	callq  400c60 <printf@plt>
  401d74:	89 ee                	mov    %ebp,%esi
  401d76:	bf 01 00 00 00       	mov    $0x1,%edi
  401d7b:	e8 70 fd ff ff       	callq  401af0 <notify_server>
  401d80:	48 83 c4 08          	add    $0x8,%rsp
  401d84:	5b                   	pop    %rbx
  401d85:	5d                   	pop    %rbp
  401d86:	c3                   	retq   

0000000000401d87 <fail>:
  401d87:	48 83 ec 08          	sub    $0x8,%rsp
  401d8b:	83 3d 56 37 20 00 00 	cmpl   $0x0,0x203756(%rip)        # 6054e8 <is_checker>
  401d92:	74 0a                	je     401d9e <fail+0x17>
  401d94:	b8 00 00 00 00       	mov    $0x0,%eax
  401d99:	e8 77 fc ff ff       	callq  401a15 <check_fail>
  401d9e:	89 fe                	mov    %edi,%esi
  401da0:	bf 00 00 00 00       	mov    $0x0,%edi
  401da5:	e8 46 fd ff ff       	callq  401af0 <notify_server>
  401daa:	48 83 c4 08          	add    $0x8,%rsp
  401dae:	c3                   	retq   

0000000000401daf <bushandler>:
  401daf:	48 83 ec 08          	sub    $0x8,%rsp
  401db3:	83 3d 2e 37 20 00 00 	cmpl   $0x0,0x20372e(%rip)        # 6054e8 <is_checker>
  401dba:	74 14                	je     401dd0 <bushandler+0x21>
  401dbc:	bf ed 31 40 00       	mov    $0x4031ed,%edi
  401dc1:	e8 6a ee ff ff       	callq  400c30 <puts@plt>
  401dc6:	b8 00 00 00 00       	mov    $0x0,%eax
  401dcb:	e8 45 fc ff ff       	callq  401a15 <check_fail>
  401dd0:	bf 58 33 40 00       	mov    $0x403358,%edi
  401dd5:	e8 56 ee ff ff       	callq  400c30 <puts@plt>
  401dda:	bf f7 31 40 00       	mov    $0x4031f7,%edi
  401ddf:	e8 4c ee ff ff       	callq  400c30 <puts@plt>
  401de4:	be 00 00 00 00       	mov    $0x0,%esi
  401de9:	bf 00 00 00 00       	mov    $0x0,%edi
  401dee:	e8 fd fc ff ff       	callq  401af0 <notify_server>
  401df3:	bf 01 00 00 00       	mov    $0x1,%edi
  401df8:	e8 c3 ef ff ff       	callq  400dc0 <exit@plt>

0000000000401dfd <seghandler>:
  401dfd:	48 83 ec 08          	sub    $0x8,%rsp
  401e01:	83 3d e0 36 20 00 00 	cmpl   $0x0,0x2036e0(%rip)        # 6054e8 <is_checker>
  401e08:	74 14                	je     401e1e <seghandler+0x21>
  401e0a:	bf 0d 32 40 00       	mov    $0x40320d,%edi
  401e0f:	e8 1c ee ff ff       	callq  400c30 <puts@plt>
  401e14:	b8 00 00 00 00       	mov    $0x0,%eax
  401e19:	e8 f7 fb ff ff       	callq  401a15 <check_fail>
  401e1e:	bf 78 33 40 00       	mov    $0x403378,%edi
  401e23:	e8 08 ee ff ff       	callq  400c30 <puts@plt>
  401e28:	bf f7 31 40 00       	mov    $0x4031f7,%edi
  401e2d:	e8 fe ed ff ff       	callq  400c30 <puts@plt>
  401e32:	be 00 00 00 00       	mov    $0x0,%esi
  401e37:	bf 00 00 00 00       	mov    $0x0,%edi
  401e3c:	e8 af fc ff ff       	callq  401af0 <notify_server>
  401e41:	bf 01 00 00 00       	mov    $0x1,%edi
  401e46:	e8 75 ef ff ff       	callq  400dc0 <exit@plt>

0000000000401e4b <illegalhandler>:
  401e4b:	48 83 ec 08          	sub    $0x8,%rsp
  401e4f:	83 3d 92 36 20 00 00 	cmpl   $0x0,0x203692(%rip)        # 6054e8 <is_checker>
  401e56:	74 14                	je     401e6c <illegalhandler+0x21>
  401e58:	bf 20 32 40 00       	mov    $0x403220,%edi
  401e5d:	e8 ce ed ff ff       	callq  400c30 <puts@plt>
  401e62:	b8 00 00 00 00       	mov    $0x0,%eax
  401e67:	e8 a9 fb ff ff       	callq  401a15 <check_fail>
  401e6c:	bf a0 33 40 00       	mov    $0x4033a0,%edi
  401e71:	e8 ba ed ff ff       	callq  400c30 <puts@plt>
  401e76:	bf f7 31 40 00       	mov    $0x4031f7,%edi
  401e7b:	e8 b0 ed ff ff       	callq  400c30 <puts@plt>
  401e80:	be 00 00 00 00       	mov    $0x0,%esi
  401e85:	bf 00 00 00 00       	mov    $0x0,%edi
  401e8a:	e8 61 fc ff ff       	callq  401af0 <notify_server>
  401e8f:	bf 01 00 00 00       	mov    $0x1,%edi
  401e94:	e8 27 ef ff ff       	callq  400dc0 <exit@plt>

0000000000401e99 <sigalrmhandler>:
  401e99:	48 83 ec 08          	sub    $0x8,%rsp
  401e9d:	83 3d 44 36 20 00 00 	cmpl   $0x0,0x203644(%rip)        # 6054e8 <is_checker>
  401ea4:	74 14                	je     401eba <sigalrmhandler+0x21>
  401ea6:	bf 34 32 40 00       	mov    $0x403234,%edi
  401eab:	e8 80 ed ff ff       	callq  400c30 <puts@plt>
  401eb0:	b8 00 00 00 00       	mov    $0x0,%eax
  401eb5:	e8 5b fb ff ff       	callq  401a15 <check_fail>
  401eba:	be 05 00 00 00       	mov    $0x5,%esi
  401ebf:	bf d0 33 40 00       	mov    $0x4033d0,%edi
  401ec4:	b8 00 00 00 00       	mov    $0x0,%eax
  401ec9:	e8 92 ed ff ff       	callq  400c60 <printf@plt>
  401ece:	be 00 00 00 00       	mov    $0x0,%esi
  401ed3:	bf 00 00 00 00       	mov    $0x0,%edi
  401ed8:	e8 13 fc ff ff       	callq  401af0 <notify_server>
  401edd:	bf 01 00 00 00       	mov    $0x1,%edi
  401ee2:	e8 d9 ee ff ff       	callq  400dc0 <exit@plt>

0000000000401ee7 <launch>:
  401ee7:	55                   	push   %rbp
  401ee8:	48 89 e5             	mov    %rsp,%rbp
  401eeb:	48 89 fa             	mov    %rdi,%rdx
  401eee:	48 8d 47 1e          	lea    0x1e(%rdi),%rax
  401ef2:	48 83 e0 f0          	and    $0xfffffffffffffff0,%rax
  401ef6:	48 29 c4             	sub    %rax,%rsp
  401ef9:	48 8d 7c 24 0f       	lea    0xf(%rsp),%rdi
  401efe:	48 83 e7 f0          	and    $0xfffffffffffffff0,%rdi
  401f02:	be f4 00 00 00       	mov    $0xf4,%esi
  401f07:	e8 64 ed ff ff       	callq  400c70 <memset@plt>
  401f0c:	48 8b 05 8d 35 20 00 	mov    0x20358d(%rip),%rax        # 6054a0 <stdin@@GLIBC_2.2.5>
  401f13:	48 39 05 b6 35 20 00 	cmp    %rax,0x2035b6(%rip)        # 6054d0 <infile>
  401f1a:	75 0f                	jne    401f2b <launch+0x44>
  401f1c:	bf 3c 32 40 00       	mov    $0x40323c,%edi
  401f21:	b8 00 00 00 00       	mov    $0x0,%eax
  401f26:	e8 35 ed ff ff       	callq  400c60 <printf@plt>
  401f2b:	c7 05 a7 35 20 00 00 	movl   $0x0,0x2035a7(%rip)        # 6054dc <vlevel>
  401f32:	00 00 00 
  401f35:	b8 00 00 00 00       	mov    $0x0,%eax
  401f3a:	e8 91 f9 ff ff       	callq  4018d0 <test>
  401f3f:	83 3d a2 35 20 00 00 	cmpl   $0x0,0x2035a2(%rip)        # 6054e8 <is_checker>
  401f46:	74 14                	je     401f5c <launch+0x75>
  401f48:	bf 49 32 40 00       	mov    $0x403249,%edi
  401f4d:	e8 de ec ff ff       	callq  400c30 <puts@plt>
  401f52:	b8 00 00 00 00       	mov    $0x0,%eax
  401f57:	e8 b9 fa ff ff       	callq  401a15 <check_fail>
  401f5c:	bf 54 32 40 00       	mov    $0x403254,%edi
  401f61:	e8 ca ec ff ff       	callq  400c30 <puts@plt>
  401f66:	c9                   	leaveq 
  401f67:	c3                   	retq   

0000000000401f68 <stable_launch>:
  401f68:	48 83 ec 08          	sub    $0x8,%rsp
  401f6c:	48 89 3d 55 35 20 00 	mov    %rdi,0x203555(%rip)        # 6054c8 <global_offset>
  401f73:	41 b9 00 00 00 00    	mov    $0x0,%r9d
  401f79:	41 b8 00 00 00 00    	mov    $0x0,%r8d
  401f7f:	b9 32 01 00 00       	mov    $0x132,%ecx
  401f84:	ba 07 00 00 00       	mov    $0x7,%edx
  401f89:	be 00 00 10 00       	mov    $0x100000,%esi
  401f8e:	bf 00 60 58 55       	mov    $0x55586000,%edi
  401f93:	e8 b8 ec ff ff       	callq  400c50 <mmap@plt>
  401f98:	48 3d 00 60 58 55    	cmp    $0x55586000,%rax
  401f9e:	74 32                	je     401fd2 <stable_launch+0x6a>
  401fa0:	be 00 00 10 00       	mov    $0x100000,%esi
  401fa5:	48 89 c7             	mov    %rax,%rdi
  401fa8:	e8 a3 ed ff ff       	callq  400d50 <munmap@plt>
  401fad:	ba 00 60 58 55       	mov    $0x55586000,%edx
  401fb2:	be 08 34 40 00       	mov    $0x403408,%esi
  401fb7:	48 8b 3d f2 34 20 00 	mov    0x2034f2(%rip),%rdi        # 6054b0 <stderr@@GLIBC_2.2.5>
  401fbe:	b8 00 00 00 00       	mov    $0x0,%eax
  401fc3:	e8 18 ed ff ff       	callq  400ce0 <fprintf@plt>
  401fc8:	bf 01 00 00 00       	mov    $0x1,%edi
  401fcd:	e8 ee ed ff ff       	callq  400dc0 <exit@plt>
  401fd2:	48 c7 05 33 41 20 00 	movq   $0x55685ff8,0x204133(%rip)        # 606110 <stack_top>
  401fd9:	f8 5f 68 55 
  401fdd:	ba f8 5f 68 55       	mov    $0x55685ff8,%edx
  401fe2:	48 89 e0             	mov    %rsp,%rax
  401fe5:	48 89 d4             	mov    %rdx,%rsp
  401fe8:	48 89 c2             	mov    %rax,%rdx
  401feb:	48 89 15 ce 34 20 00 	mov    %rdx,0x2034ce(%rip)        # 6054c0 <global_save_stack>
  401ff2:	48 8b 3d cf 34 20 00 	mov    0x2034cf(%rip),%rdi        # 6054c8 <global_offset>
  401ff9:	e8 e9 fe ff ff       	callq  401ee7 <launch>
  401ffe:	48 8b 05 bb 34 20 00 	mov    0x2034bb(%rip),%rax        # 6054c0 <global_save_stack>
  402005:	48 89 c4             	mov    %rax,%rsp
  402008:	be 00 00 10 00       	mov    $0x100000,%esi
  40200d:	bf 00 60 58 55       	mov    $0x55586000,%edi
  402012:	e8 39 ed ff ff       	callq  400d50 <munmap@plt>
  402017:	48 83 c4 08          	add    $0x8,%rsp
  40201b:	c3                   	retq   
  40201c:	0f 1f 40 00          	nopl   0x0(%rax)

0000000000402020 <sigalrm_handler>:
  402020:	48 83 ec 08          	sub    $0x8,%rsp
  402024:	ba 00 00 00 00       	mov    $0x0,%edx
  402029:	be 40 34 40 00       	mov    $0x403440,%esi
  40202e:	48 8b 3d 7b 34 20 00 	mov    0x20347b(%rip),%rdi        # 6054b0 <stderr@@GLIBC_2.2.5>
  402035:	b8 00 00 00 00       	mov    $0x0,%eax
  40203a:	e8 a1 ec ff ff       	callq  400ce0 <fprintf@plt>
  40203f:	bf 01 00 00 00       	mov    $0x1,%edi
  402044:	e8 77 ed ff ff       	callq  400dc0 <exit@plt>

0000000000402049 <rio_readlineb>:
  402049:	41 57                	push   %r15
  40204b:	41 56                	push   %r14
  40204d:	41 55                	push   %r13
  40204f:	41 54                	push   %r12
  402051:	55                   	push   %rbp
  402052:	53                   	push   %rbx
  402053:	48 83 ec 38          	sub    $0x38,%rsp
  402057:	49 89 f6             	mov    %rsi,%r14
  40205a:	48 89 54 24 18       	mov    %rdx,0x18(%rsp)
  40205f:	48 83 fa 01          	cmp    $0x1,%rdx
  402063:	0f 86 bd 00 00 00    	jbe    402126 <rio_readlineb+0xdd>
  402069:	48 89 fb             	mov    %rdi,%rbx
  40206c:	41 bd 01 00 00 00    	mov    $0x1,%r13d
  402072:	4c 8d 67 10          	lea    0x10(%rdi),%r12
  402076:	eb 2e                	jmp    4020a6 <rio_readlineb+0x5d>
  402078:	ba 00 20 00 00       	mov    $0x2000,%edx
  40207d:	4c 89 e6             	mov    %r12,%rsi
  402080:	8b 3b                	mov    (%rbx),%edi
  402082:	e8 19 ec ff ff       	callq  400ca0 <read@plt>
  402087:	89 43 04             	mov    %eax,0x4(%rbx)
  40208a:	85 c0                	test   %eax,%eax
  40208c:	79 0f                	jns    40209d <rio_readlineb+0x54>
  40208e:	e8 5d eb ff ff       	callq  400bf0 <__errno_location@plt>
  402093:	83 38 04             	cmpl   $0x4,(%rax)
  402096:	74 0e                	je     4020a6 <rio_readlineb+0x5d>
  402098:	e9 98 00 00 00       	jmpq   402135 <rio_readlineb+0xec>
  40209d:	85 c0                	test   %eax,%eax
  40209f:	90                   	nop
  4020a0:	74 6c                	je     40210e <rio_readlineb+0xc5>
  4020a2:	4c 89 63 08          	mov    %r12,0x8(%rbx)
  4020a6:	8b 6b 04             	mov    0x4(%rbx),%ebp
  4020a9:	85 ed                	test   %ebp,%ebp
  4020ab:	7e cb                	jle    402078 <rio_readlineb+0x2f>
  4020ad:	85 ed                	test   %ebp,%ebp
  4020af:	41 0f 95 c7          	setne  %r15b
  4020b3:	41 0f b6 c7          	movzbl %r15b,%eax
  4020b7:	89 44 24 0c          	mov    %eax,0xc(%rsp)
  4020bb:	45 0f b6 ff          	movzbl %r15b,%r15d
  4020bf:	48 8b 4b 08          	mov    0x8(%rbx),%rcx
  4020c3:	4c 89 fa             	mov    %r15,%rdx
  4020c6:	48 89 4c 24 10       	mov    %rcx,0x10(%rsp)
  4020cb:	48 89 ce             	mov    %rcx,%rsi
  4020ce:	48 8d 7c 24 2f       	lea    0x2f(%rsp),%rdi
  4020d3:	e8 28 ec ff ff       	callq  400d00 <memcpy@plt>
  4020d8:	4c 03 7c 24 10       	add    0x10(%rsp),%r15
  4020dd:	4c 89 7b 08          	mov    %r15,0x8(%rbx)
  4020e1:	8b 44 24 0c          	mov    0xc(%rsp),%eax
  4020e5:	29 c5                	sub    %eax,%ebp
  4020e7:	89 6b 04             	mov    %ebp,0x4(%rbx)
  4020ea:	83 f8 01             	cmp    $0x1,%eax
  4020ed:	75 13                	jne    402102 <rio_readlineb+0xb9>
  4020ef:	49 83 c6 01          	add    $0x1,%r14
  4020f3:	0f b6 44 24 2f       	movzbl 0x2f(%rsp),%eax
  4020f8:	41 88 46 ff          	mov    %al,-0x1(%r14)
  4020fc:	3c 0a                	cmp    $0xa,%al
  4020fe:	75 19                	jne    402119 <rio_readlineb+0xd0>
  402100:	eb 2a                	jmp    40212c <rio_readlineb+0xe3>
  402102:	83 7c 24 0c 00       	cmpl   $0x0,0xc(%rsp)
  402107:	75 35                	jne    40213e <rio_readlineb+0xf5>
  402109:	4c 89 e8             	mov    %r13,%rax
  40210c:	eb 03                	jmp    402111 <rio_readlineb+0xc8>
  40210e:	4c 89 e8             	mov    %r13,%rax
  402111:	48 83 f8 01          	cmp    $0x1,%rax
  402115:	75 15                	jne    40212c <rio_readlineb+0xe3>
  402117:	eb 2e                	jmp    402147 <rio_readlineb+0xfe>
  402119:	49 83 c5 01          	add    $0x1,%r13
  40211d:	4c 3b 6c 24 18       	cmp    0x18(%rsp),%r13
  402122:	74 08                	je     40212c <rio_readlineb+0xe3>
  402124:	eb 80                	jmp    4020a6 <rio_readlineb+0x5d>
  402126:	41 bd 01 00 00 00    	mov    $0x1,%r13d
  40212c:	41 c6 06 00          	movb   $0x0,(%r14)
  402130:	4c 89 e8             	mov    %r13,%rax
  402133:	eb 17                	jmp    40214c <rio_readlineb+0x103>
  402135:	48 c7 c0 ff ff ff ff 	mov    $0xffffffffffffffff,%rax
  40213c:	eb 0e                	jmp    40214c <rio_readlineb+0x103>
  40213e:	48 c7 c0 ff ff ff ff 	mov    $0xffffffffffffffff,%rax
  402145:	eb 05                	jmp    40214c <rio_readlineb+0x103>
  402147:	b8 00 00 00 00       	mov    $0x0,%eax
  40214c:	48 83 c4 38          	add    $0x38,%rsp
  402150:	5b                   	pop    %rbx
  402151:	5d                   	pop    %rbp
  402152:	41 5c                	pop    %r12
  402154:	41 5d                	pop    %r13
  402156:	41 5e                	pop    %r14
  402158:	41 5f                	pop    %r15
  40215a:	c3                   	retq   

000000000040215b <submitr>:
  40215b:	41 57                	push   %r15
  40215d:	41 56                	push   %r14
  40215f:	41 55                	push   %r13
  402161:	41 54                	push   %r12
  402163:	55                   	push   %rbp
  402164:	53                   	push   %rbx
  402165:	48 81 ec 58 a0 00 00 	sub    $0xa058,%rsp
  40216c:	49 89 ff             	mov    %rdi,%r15
  40216f:	89 f5                	mov    %esi,%ebp
  402171:	48 89 14 24          	mov    %rdx,(%rsp)
  402175:	48 89 4c 24 08       	mov    %rcx,0x8(%rsp)
  40217a:	4d 89 c5             	mov    %r8,%r13
  40217d:	4c 89 cb             	mov    %r9,%rbx
  402180:	4c 8b b4 24 90 a0 00 	mov    0xa090(%rsp),%r14
  402187:	00 
  402188:	c7 84 24 2c 20 00 00 	movl   $0x0,0x202c(%rsp)
  40218f:	00 00 00 00 
  402193:	ba 00 00 00 00       	mov    $0x0,%edx
  402198:	be 01 00 00 00       	mov    $0x1,%esi
  40219d:	bf 02 00 00 00       	mov    $0x2,%edi
  4021a2:	e8 39 ec ff ff       	callq  400de0 <socket@plt>
  4021a7:	41 89 c4             	mov    %eax,%r12d
  4021aa:	85 c0                	test   %eax,%eax
  4021ac:	79 50                	jns    4021fe <submitr+0xa3>
  4021ae:	48 b8 45 72 72 6f 72 	movabs $0x43203a726f727245,%rax
  4021b5:	3a 20 43 
  4021b8:	49 89 06             	mov    %rax,(%r14)
  4021bb:	48 b8 6c 69 65 6e 74 	movabs $0x6e7520746e65696c,%rax
  4021c2:	20 75 6e 
  4021c5:	49 89 46 08          	mov    %rax,0x8(%r14)
  4021c9:	48 b8 61 62 6c 65 20 	movabs $0x206f7420656c6261,%rax
  4021d0:	74 6f 20 
  4021d3:	49 89 46 10          	mov    %rax,0x10(%r14)
  4021d7:	48 b8 63 72 65 61 74 	movabs $0x7320657461657263,%rax
  4021de:	65 20 73 
  4021e1:	49 89 46 18          	mov    %rax,0x18(%r14)
  4021e5:	41 c7 46 20 6f 63 6b 	movl   $0x656b636f,0x20(%r14)
  4021ec:	65 
  4021ed:	66 41 c7 46 24 74 00 	movw   $0x74,0x24(%r14)
  4021f4:	b8 ff ff ff ff       	mov    $0xffffffff,%eax
  4021f9:	e9 b3 07 00 00       	jmpq   4029b1 <submitr+0x856>
  4021fe:	4c 89 ff             	mov    %r15,%rdi
  402201:	e8 ca ea ff ff       	callq  400cd0 <gethostbyname@plt>
  402206:	48 85 c0             	test   %rax,%rax
  402209:	75 6b                	jne    402276 <submitr+0x11b>
  40220b:	48 b8 45 72 72 6f 72 	movabs $0x44203a726f727245,%rax
  402212:	3a 20 44 
  402215:	49 89 06             	mov    %rax,(%r14)
  402218:	48 b8 4e 53 20 69 73 	movabs $0x6e7520736920534e,%rax
  40221f:	20 75 6e 
  402222:	49 89 46 08          	mov    %rax,0x8(%r14)
  402226:	48 b8 61 62 6c 65 20 	movabs $0x206f7420656c6261,%rax
  40222d:	74 6f 20 
  402230:	49 89 46 10          	mov    %rax,0x10(%r14)
  402234:	48 b8 72 65 73 6f 6c 	movabs $0x2065766c6f736572,%rax
  40223b:	76 65 20 
  40223e:	49 89 46 18          	mov    %rax,0x18(%r14)
  402242:	48 b8 73 65 72 76 65 	movabs $0x6120726576726573,%rax
  402249:	72 20 61 
  40224c:	49 89 46 20          	mov    %rax,0x20(%r14)
  402250:	41 c7 46 28 64 64 72 	movl   $0x65726464,0x28(%r14)
  402257:	65 
  402258:	66 41 c7 46 2c 73 73 	movw   $0x7373,0x2c(%r14)
  40225f:	41 c6 46 2e 00       	movb   $0x0,0x2e(%r14)
  402264:	44 89 e7             	mov    %r12d,%edi
  402267:	e8 24 ea ff ff       	callq  400c90 <close@plt>
  40226c:	b8 ff ff ff ff       	mov    $0xffffffff,%eax
  402271:	e9 3b 07 00 00       	jmpq   4029b1 <submitr+0x856>
  402276:	48 c7 84 24 40 a0 00 	movq   $0x0,0xa040(%rsp)
  40227d:	00 00 00 00 00 
  402282:	48 c7 84 24 48 a0 00 	movq   $0x0,0xa048(%rsp)
  402289:	00 00 00 00 00 
  40228e:	66 c7 84 24 40 a0 00 	movw   $0x2,0xa040(%rsp)
  402295:	00 02 00 
  402298:	48 63 50 14          	movslq 0x14(%rax),%rdx
  40229c:	48 8d b4 24 44 a0 00 	lea    0xa044(%rsp),%rsi
  4022a3:	00 
  4022a4:	48 8b 40 18          	mov    0x18(%rax),%rax
  4022a8:	48 8b 38             	mov    (%rax),%rdi
  4022ab:	e8 b0 ea ff ff       	callq  400d60 <bcopy@plt>
  4022b0:	66 c1 cd 08          	ror    $0x8,%bp
  4022b4:	66 89 ac 24 42 a0 00 	mov    %bp,0xa042(%rsp)
  4022bb:	00 
  4022bc:	ba 10 00 00 00       	mov    $0x10,%edx
  4022c1:	48 8d b4 24 40 a0 00 	lea    0xa040(%rsp),%rsi
  4022c8:	00 
  4022c9:	44 89 e7             	mov    %r12d,%edi
  4022cc:	e8 ff ea ff ff       	callq  400dd0 <connect@plt>
  4022d1:	85 c0                	test   %eax,%eax
  4022d3:	79 5d                	jns    402332 <submitr+0x1d7>
  4022d5:	48 b8 45 72 72 6f 72 	movabs $0x55203a726f727245,%rax
  4022dc:	3a 20 55 
  4022df:	49 89 06             	mov    %rax,(%r14)
  4022e2:	48 b8 6e 61 62 6c 65 	movabs $0x6f7420656c62616e,%rax
  4022e9:	20 74 6f 
  4022ec:	49 89 46 08          	mov    %rax,0x8(%r14)
  4022f0:	48 b8 20 63 6f 6e 6e 	movabs $0x7463656e6e6f6320,%rax
  4022f7:	65 63 74 
  4022fa:	49 89 46 10          	mov    %rax,0x10(%r14)
  4022fe:	48 b8 20 74 6f 20 74 	movabs $0x20656874206f7420,%rax
  402305:	68 65 20 
  402308:	49 89 46 18          	mov    %rax,0x18(%r14)
  40230c:	41 c7 46 20 73 65 72 	movl   $0x76726573,0x20(%r14)
  402313:	76 
  402314:	66 41 c7 46 24 65 72 	movw   $0x7265,0x24(%r14)
  40231b:	41 c6 46 26 00       	movb   $0x0,0x26(%r14)
  402320:	44 89 e7             	mov    %r12d,%edi
  402323:	e8 68 e9 ff ff       	callq  400c90 <close@plt>
  402328:	b8 ff ff ff ff       	mov    $0xffffffff,%eax
  40232d:	e9 7f 06 00 00       	jmpq   4029b1 <submitr+0x856>
  402332:	48 c7 c2 ff ff ff ff 	mov    $0xffffffffffffffff,%rdx
  402339:	48 89 df             	mov    %rbx,%rdi
  40233c:	b8 00 00 00 00       	mov    $0x0,%eax
  402341:	48 89 d1             	mov    %rdx,%rcx
  402344:	f2 ae                	repnz scas %es:(%rdi),%al
  402346:	48 f7 d1             	not    %rcx
  402349:	48 89 ce             	mov    %rcx,%rsi
  40234c:	48 8b 3c 24          	mov    (%rsp),%rdi
  402350:	48 89 d1             	mov    %rdx,%rcx
  402353:	f2 ae                	repnz scas %es:(%rdi),%al
  402355:	49 89 c8             	mov    %rcx,%r8
  402358:	48 8b 7c 24 08       	mov    0x8(%rsp),%rdi
  40235d:	48 89 d1             	mov    %rdx,%rcx
  402360:	f2 ae                	repnz scas %es:(%rdi),%al
  402362:	48 f7 d1             	not    %rcx
  402365:	49 89 c9             	mov    %rcx,%r9
  402368:	4c 89 ef             	mov    %r13,%rdi
  40236b:	48 89 d1             	mov    %rdx,%rcx
  40236e:	f2 ae                	repnz scas %es:(%rdi),%al
  402370:	4d 29 c1             	sub    %r8,%r9
  402373:	49 29 c9             	sub    %rcx,%r9
  402376:	48 8d 44 76 fd       	lea    -0x3(%rsi,%rsi,2),%rax
  40237b:	49 8d 44 01 7b       	lea    0x7b(%r9,%rax,1),%rax
  402380:	48 3d 00 20 00 00    	cmp    $0x2000,%rax
  402386:	76 73                	jbe    4023fb <submitr+0x2a0>
  402388:	48 b8 45 72 72 6f 72 	movabs $0x52203a726f727245,%rax
  40238f:	3a 20 52 
  402392:	49 89 06             	mov    %rax,(%r14)
  402395:	48 b8 65 73 75 6c 74 	movabs $0x747320746c757365,%rax
  40239c:	20 73 74 
  40239f:	49 89 46 08          	mov    %rax,0x8(%r14)
  4023a3:	48 b8 72 69 6e 67 20 	movabs $0x6f6f7420676e6972,%rax
  4023aa:	74 6f 6f 
  4023ad:	49 89 46 10          	mov    %rax,0x10(%r14)
  4023b1:	48 b8 20 6c 61 72 67 	movabs $0x202e656772616c20,%rax
  4023b8:	65 2e 20 
  4023bb:	49 89 46 18          	mov    %rax,0x18(%r14)
  4023bf:	48 b8 49 6e 63 72 65 	movabs $0x6573616572636e49,%rax
  4023c6:	61 73 65 
  4023c9:	49 89 46 20          	mov    %rax,0x20(%r14)
  4023cd:	48 b8 20 53 55 42 4d 	movabs $0x5254494d42555320,%rax
  4023d4:	49 54 52 
  4023d7:	49 89 46 28          	mov    %rax,0x28(%r14)
  4023db:	48 b8 5f 4d 41 58 42 	movabs $0x46554258414d5f,%rax
  4023e2:	55 46 00 
  4023e5:	49 89 46 30          	mov    %rax,0x30(%r14)
  4023e9:	44 89 e7             	mov    %r12d,%edi
  4023ec:	e8 9f e8 ff ff       	callq  400c90 <close@plt>
  4023f1:	b8 ff ff ff ff       	mov    $0xffffffff,%eax
  4023f6:	e9 b6 05 00 00       	jmpq   4029b1 <submitr+0x856>
  4023fb:	48 8d 94 24 30 40 00 	lea    0x4030(%rsp),%rdx
  402402:	00 
  402403:	b9 00 04 00 00       	mov    $0x400,%ecx
  402408:	b8 00 00 00 00       	mov    $0x0,%eax
  40240d:	48 89 d7             	mov    %rdx,%rdi
  402410:	f3 48 ab             	rep stos %rax,%es:(%rdi)
  402413:	48 89 df             	mov    %rbx,%rdi
  402416:	48 c7 c1 ff ff ff ff 	mov    $0xffffffffffffffff,%rcx
  40241d:	f2 ae                	repnz scas %es:(%rdi),%al
  40241f:	48 f7 d1             	not    %rcx
  402422:	48 83 e9 01          	sub    $0x1,%rcx
  402426:	85 c9                	test   %ecx,%ecx
  402428:	0f 84 50 04 00 00    	je     40287e <submitr+0x723>
  40242e:	8d 41 ff             	lea    -0x1(%rcx),%eax
  402431:	4c 8d 6c 03 01       	lea    0x1(%rbx,%rax,1),%r13
  402436:	48 89 d5             	mov    %rdx,%rbp
  402439:	0f b6 13             	movzbl (%rbx),%edx
  40243c:	80 fa 2a             	cmp    $0x2a,%dl
  40243f:	74 1f                	je     402460 <submitr+0x305>
  402441:	8d 42 d3             	lea    -0x2d(%rdx),%eax
  402444:	3c 01                	cmp    $0x1,%al
  402446:	76 18                	jbe    402460 <submitr+0x305>
  402448:	80 fa 5f             	cmp    $0x5f,%dl
  40244b:	74 13                	je     402460 <submitr+0x305>
  40244d:	8d 42 d0             	lea    -0x30(%rdx),%eax
  402450:	3c 09                	cmp    $0x9,%al
  402452:	76 0c                	jbe    402460 <submitr+0x305>
  402454:	89 d0                	mov    %edx,%eax
  402456:	83 e0 df             	and    $0xffffffdf,%eax
  402459:	83 e8 41             	sub    $0x41,%eax
  40245c:	3c 19                	cmp    $0x19,%al
  40245e:	77 09                	ja     402469 <submitr+0x30e>
  402460:	48 8d 45 01          	lea    0x1(%rbp),%rax
  402464:	88 55 00             	mov    %dl,0x0(%rbp)
  402467:	eb 52                	jmp    4024bb <submitr+0x360>
  402469:	80 fa 20             	cmp    $0x20,%dl
  40246c:	75 0a                	jne    402478 <submitr+0x31d>
  40246e:	48 8d 45 01          	lea    0x1(%rbp),%rax
  402472:	c6 45 00 2b          	movb   $0x2b,0x0(%rbp)
  402476:	eb 43                	jmp    4024bb <submitr+0x360>
  402478:	8d 42 e0             	lea    -0x20(%rdx),%eax
  40247b:	3c 5f                	cmp    $0x5f,%al
  40247d:	76 09                	jbe    402488 <submitr+0x32d>
  40247f:	80 fa 09             	cmp    $0x9,%dl
  402482:	0f 85 57 04 00 00    	jne    4028df <submitr+0x784>
  402488:	0f b6 d2             	movzbl %dl,%edx
  40248b:	be d8 34 40 00       	mov    $0x4034d8,%esi
  402490:	48 8d 7c 24 10       	lea    0x10(%rsp),%rdi
  402495:	b8 00 00 00 00       	mov    $0x0,%eax
  40249a:	e8 11 e9 ff ff       	callq  400db0 <sprintf@plt>
  40249f:	0f b6 44 24 10       	movzbl 0x10(%rsp),%eax
  4024a4:	88 45 00             	mov    %al,0x0(%rbp)
  4024a7:	0f b6 44 24 11       	movzbl 0x11(%rsp),%eax
  4024ac:	88 45 01             	mov    %al,0x1(%rbp)
  4024af:	48 8d 45 03          	lea    0x3(%rbp),%rax
  4024b3:	0f b6 54 24 12       	movzbl 0x12(%rsp),%edx
  4024b8:	88 55 02             	mov    %dl,0x2(%rbp)
  4024bb:	48 83 c3 01          	add    $0x1,%rbx
  4024bf:	4c 39 eb             	cmp    %r13,%rbx
  4024c2:	0f 84 b6 03 00 00    	je     40287e <submitr+0x723>
  4024c8:	48 89 c5             	mov    %rax,%rbp
  4024cb:	e9 69 ff ff ff       	jmpq   402439 <submitr+0x2de>
  4024d0:	48 89 da             	mov    %rbx,%rdx
  4024d3:	48 89 ee             	mov    %rbp,%rsi
  4024d6:	44 89 e7             	mov    %r12d,%edi
  4024d9:	e8 62 e7 ff ff       	callq  400c40 <write@plt>
  4024de:	48 85 c0             	test   %rax,%rax
  4024e1:	7f 0f                	jg     4024f2 <submitr+0x397>
  4024e3:	e8 08 e7 ff ff       	callq  400bf0 <__errno_location@plt>
  4024e8:	83 38 04             	cmpl   $0x4,(%rax)
  4024eb:	75 12                	jne    4024ff <submitr+0x3a4>
  4024ed:	b8 00 00 00 00       	mov    $0x0,%eax
  4024f2:	48 01 c5             	add    %rax,%rbp
  4024f5:	48 29 c3             	sub    %rax,%rbx
  4024f8:	75 d6                	jne    4024d0 <submitr+0x375>
  4024fa:	4d 85 ed             	test   %r13,%r13
  4024fd:	79 71                	jns    402570 <submitr+0x415>
  4024ff:	48 b8 45 72 72 6f 72 	movabs $0x43203a726f727245,%rax
  402506:	3a 20 43 
  402509:	49 89 06             	mov    %rax,(%r14)
  40250c:	48 b8 6c 69 65 6e 74 	movabs $0x6e7520746e65696c,%rax
  402513:	20 75 6e 
  402516:	49 89 46 08          	mov    %rax,0x8(%r14)
  40251a:	48 b8 61 62 6c 65 20 	movabs $0x206f7420656c6261,%rax
  402521:	74 6f 20 
  402524:	49 89 46 10          	mov    %rax,0x10(%r14)
  402528:	48 b8 77 72 69 74 65 	movabs $0x6f74206574697277,%rax
  40252f:	20 74 6f 
  402532:	49 89 46 18          	mov    %rax,0x18(%r14)
  402536:	48 b8 20 74 68 65 20 	movabs $0x7365722065687420,%rax
  40253d:	72 65 73 
  402540:	49 89 46 20          	mov    %rax,0x20(%r14)
  402544:	48 b8 75 6c 74 20 73 	movabs $0x7672657320746c75,%rax
  40254b:	65 72 76 
  40254e:	49 89 46 28          	mov    %rax,0x28(%r14)
  402552:	66 41 c7 46 30 65 72 	movw   $0x7265,0x30(%r14)
  402559:	41 c6 46 32 00       	movb   $0x0,0x32(%r14)
  40255e:	44 89 e7             	mov    %r12d,%edi
  402561:	e8 2a e7 ff ff       	callq  400c90 <close@plt>
  402566:	b8 ff ff ff ff       	mov    $0xffffffff,%eax
  40256b:	e9 41 04 00 00       	jmpq   4029b1 <submitr+0x856>
  402570:	44 89 a4 24 30 80 00 	mov    %r12d,0x8030(%rsp)
  402577:	00 
  402578:	c7 84 24 34 80 00 00 	movl   $0x0,0x8034(%rsp)
  40257f:	00 00 00 00 
  402583:	48 8d 84 24 40 80 00 	lea    0x8040(%rsp),%rax
  40258a:	00 
  40258b:	48 89 84 24 38 80 00 	mov    %rax,0x8038(%rsp)
  402592:	00 
  402593:	ba 00 20 00 00       	mov    $0x2000,%edx
  402598:	48 8d b4 24 30 60 00 	lea    0x6030(%rsp),%rsi
  40259f:	00 
  4025a0:	48 8d bc 24 30 80 00 	lea    0x8030(%rsp),%rdi
  4025a7:	00 
  4025a8:	e8 9c fa ff ff       	callq  402049 <rio_readlineb>
  4025ad:	48 85 c0             	test   %rax,%rax
  4025b0:	0f 8f 80 00 00 00    	jg     402636 <submitr+0x4db>
  4025b6:	48 b8 45 72 72 6f 72 	movabs $0x43203a726f727245,%rax
  4025bd:	3a 20 43 
  4025c0:	49 89 06             	mov    %rax,(%r14)
  4025c3:	48 b8 6c 69 65 6e 74 	movabs $0x6e7520746e65696c,%rax
  4025ca:	20 75 6e 
  4025cd:	49 89 46 08          	mov    %rax,0x8(%r14)
  4025d1:	48 b8 61 62 6c 65 20 	movabs $0x206f7420656c6261,%rax
  4025d8:	74 6f 20 
  4025db:	49 89 46 10          	mov    %rax,0x10(%r14)
  4025df:	48 b8 72 65 61 64 20 	movabs $0x7269662064616572,%rax
  4025e6:	66 69 72 
  4025e9:	49 89 46 18          	mov    %rax,0x18(%r14)
  4025ed:	48 b8 73 74 20 68 65 	movabs $0x6564616568207473,%rax
  4025f4:	61 64 65 
  4025f7:	49 89 46 20          	mov    %rax,0x20(%r14)
  4025fb:	48 b8 72 20 66 72 6f 	movabs $0x72206d6f72662072,%rax
  402602:	6d 20 72 
  402605:	49 89 46 28          	mov    %rax,0x28(%r14)
  402609:	48 b8 65 73 75 6c 74 	movabs $0x657320746c757365,%rax
  402610:	20 73 65 
  402613:	49 89 46 30          	mov    %rax,0x30(%r14)
  402617:	41 c7 46 38 72 76 65 	movl   $0x72657672,0x38(%r14)
  40261e:	72 
  40261f:	41 c6 46 3c 00       	movb   $0x0,0x3c(%r14)
  402624:	44 89 e7             	mov    %r12d,%edi
  402627:	e8 64 e6 ff ff       	callq  400c90 <close@plt>
  40262c:	b8 ff ff ff ff       	mov    $0xffffffff,%eax
  402631:	e9 7b 03 00 00       	jmpq   4029b1 <submitr+0x856>
  402636:	4c 8d 44 24 20       	lea    0x20(%rsp),%r8
  40263b:	48 8d 8c 24 2c 20 00 	lea    0x202c(%rsp),%rcx
  402642:	00 
  402643:	48 8d 94 24 30 20 00 	lea    0x2030(%rsp),%rdx
  40264a:	00 
  40264b:	be df 34 40 00       	mov    $0x4034df,%esi
  402650:	48 8d bc 24 30 60 00 	lea    0x6030(%rsp),%rdi
  402657:	00 
  402658:	b8 00 00 00 00       	mov    $0x0,%eax
  40265d:	e8 de e6 ff ff       	callq  400d40 <__isoc99_sscanf@plt>
  402662:	e9 9a 00 00 00       	jmpq   402701 <submitr+0x5a6>
  402667:	ba 00 20 00 00       	mov    $0x2000,%edx
  40266c:	48 8d b4 24 30 60 00 	lea    0x6030(%rsp),%rsi
  402673:	00 
  402674:	48 8d bc 24 30 80 00 	lea    0x8030(%rsp),%rdi
  40267b:	00 
  40267c:	e8 c8 f9 ff ff       	callq  402049 <rio_readlineb>
  402681:	48 85 c0             	test   %rax,%rax
  402684:	7f 7b                	jg     402701 <submitr+0x5a6>
  402686:	48 b8 45 72 72 6f 72 	movabs $0x43203a726f727245,%rax
  40268d:	3a 20 43 
  402690:	49 89 06             	mov    %rax,(%r14)
  402693:	48 b8 6c 69 65 6e 74 	movabs $0x6e7520746e65696c,%rax
  40269a:	20 75 6e 
  40269d:	49 89 46 08          	mov    %rax,0x8(%r14)
  4026a1:	48 b8 61 62 6c 65 20 	movabs $0x206f7420656c6261,%rax
  4026a8:	74 6f 20 
  4026ab:	49 89 46 10          	mov    %rax,0x10(%r14)
  4026af:	48 b8 72 65 61 64 20 	movabs $0x6165682064616572,%rax
  4026b6:	68 65 61 
  4026b9:	49 89 46 18          	mov    %rax,0x18(%r14)
  4026bd:	48 b8 64 65 72 73 20 	movabs $0x6f72662073726564,%rax
  4026c4:	66 72 6f 
  4026c7:	49 89 46 20          	mov    %rax,0x20(%r14)
  4026cb:	48 b8 6d 20 74 68 65 	movabs $0x657220656874206d,%rax
  4026d2:	20 72 65 
  4026d5:	49 89 46 28          	mov    %rax,0x28(%r14)
  4026d9:	48 b8 73 75 6c 74 20 	movabs $0x72657320746c7573,%rax
  4026e0:	73 65 72 
  4026e3:	49 89 46 30          	mov    %rax,0x30(%r14)
  4026e7:	41 c7 46 38 76 65 72 	movl   $0x726576,0x38(%r14)
  4026ee:	00 
  4026ef:	44 89 e7             	mov    %r12d,%edi
  4026f2:	e8 99 e5 ff ff       	callq  400c90 <close@plt>
  4026f7:	b8 ff ff ff ff       	mov    $0xffffffff,%eax
  4026fc:	e9 b0 02 00 00       	jmpq   4029b1 <submitr+0x856>
  402701:	80 bc 24 30 60 00 00 	cmpb   $0xd,0x6030(%rsp)
  402708:	0d 
  402709:	0f 85 58 ff ff ff    	jne    402667 <submitr+0x50c>
  40270f:	80 bc 24 31 60 00 00 	cmpb   $0xa,0x6031(%rsp)
  402716:	0a 
  402717:	0f 85 4a ff ff ff    	jne    402667 <submitr+0x50c>
  40271d:	80 bc 24 32 60 00 00 	cmpb   $0x0,0x6032(%rsp)
  402724:	00 
  402725:	0f 85 3c ff ff ff    	jne    402667 <submitr+0x50c>
  40272b:	ba 00 20 00 00       	mov    $0x2000,%edx
  402730:	48 8d b4 24 30 60 00 	lea    0x6030(%rsp),%rsi
  402737:	00 
  402738:	48 8d bc 24 30 80 00 	lea    0x8030(%rsp),%rdi
  40273f:	00 
  402740:	e8 04 f9 ff ff       	callq  402049 <rio_readlineb>
  402745:	48 85 c0             	test   %rax,%rax
  402748:	0f 8f 87 00 00 00    	jg     4027d5 <submitr+0x67a>
  40274e:	48 b8 45 72 72 6f 72 	movabs $0x43203a726f727245,%rax
  402755:	3a 20 43 
  402758:	49 89 06             	mov    %rax,(%r14)
  40275b:	48 b8 6c 69 65 6e 74 	movabs $0x6e7520746e65696c,%rax
  402762:	20 75 6e 
  402765:	49 89 46 08          	mov    %rax,0x8(%r14)
  402769:	48 b8 61 62 6c 65 20 	movabs $0x206f7420656c6261,%rax
  402770:	74 6f 20 
  402773:	49 89 46 10          	mov    %rax,0x10(%r14)
  402777:	48 b8 72 65 61 64 20 	movabs $0x6174732064616572,%rax
  40277e:	73 74 61 
  402781:	49 89 46 18          	mov    %rax,0x18(%r14)
  402785:	48 b8 74 75 73 20 6d 	movabs $0x7373656d20737574,%rax
  40278c:	65 73 73 
  40278f:	49 89 46 20          	mov    %rax,0x20(%r14)
  402793:	48 b8 61 67 65 20 66 	movabs $0x6d6f726620656761,%rax
  40279a:	72 6f 6d 
  40279d:	49 89 46 28          	mov    %rax,0x28(%r14)
  4027a1:	48 b8 20 72 65 73 75 	movabs $0x20746c7573657220,%rax
  4027a8:	6c 74 20 
  4027ab:	49 89 46 30          	mov    %rax,0x30(%r14)
  4027af:	41 c7 46 38 73 65 72 	movl   $0x76726573,0x38(%r14)
  4027b6:	76 
  4027b7:	66 41 c7 46 3c 65 72 	movw   $0x7265,0x3c(%r14)
  4027be:	41 c6 46 3e 00       	movb   $0x0,0x3e(%r14)
  4027c3:	44 89 e7             	mov    %r12d,%edi
  4027c6:	e8 c5 e4 ff ff       	callq  400c90 <close@plt>
  4027cb:	b8 ff ff ff ff       	mov    $0xffffffff,%eax
  4027d0:	e9 dc 01 00 00       	jmpq   4029b1 <submitr+0x856>
  4027d5:	8b 94 24 2c 20 00 00 	mov    0x202c(%rsp),%edx
  4027dc:	81 fa c8 00 00 00    	cmp    $0xc8,%edx
  4027e2:	74 29                	je     40280d <submitr+0x6b2>
  4027e4:	48 8d 4c 24 20       	lea    0x20(%rsp),%rcx
  4027e9:	be 68 34 40 00       	mov    $0x403468,%esi
  4027ee:	4c 89 f7             	mov    %r14,%rdi
  4027f1:	b8 00 00 00 00       	mov    $0x0,%eax
  4027f6:	e8 b5 e5 ff ff       	callq  400db0 <sprintf@plt>
  4027fb:	44 89 e7             	mov    %r12d,%edi
  4027fe:	e8 8d e4 ff ff       	callq  400c90 <close@plt>
  402803:	b8 ff ff ff ff       	mov    $0xffffffff,%eax
  402808:	e9 a4 01 00 00       	jmpq   4029b1 <submitr+0x856>
  40280d:	48 8d b4 24 30 60 00 	lea    0x6030(%rsp),%rsi
  402814:	00 
  402815:	4c 89 f7             	mov    %r14,%rdi
  402818:	e8 03 e4 ff ff       	callq  400c20 <strcpy@plt>
  40281d:	44 89 e7             	mov    %r12d,%edi
  402820:	e8 6b e4 ff ff       	callq  400c90 <close@plt>
  402825:	41 0f b6 06          	movzbl (%r14),%eax
  402829:	83 e8 4f             	sub    $0x4f,%eax
  40282c:	89 c2                	mov    %eax,%edx
  40282e:	0f 85 35 01 00 00    	jne    402969 <submitr+0x80e>
  402834:	41 80 7e 01 4b       	cmpb   $0x4b,0x1(%r14)
  402839:	0f 85 50 01 00 00    	jne    40298f <submitr+0x834>
  40283f:	41 80 7e 02 0a       	cmpb   $0xa,0x2(%r14)
  402844:	0f 85 45 01 00 00    	jne    40298f <submitr+0x834>
  40284a:	41 80 7e 03 00       	cmpb   $0x0,0x3(%r14)
  40284f:	74 23                	je     402874 <submitr+0x719>
  402851:	e9 39 01 00 00       	jmpq   40298f <submitr+0x834>
  402856:	41 0f b6 56 01       	movzbl 0x1(%r14),%edx
  40285b:	83 ea 4b             	sub    $0x4b,%edx
  40285e:	75 05                	jne    402865 <submitr+0x70a>
  402860:	41 0f b6 56 02       	movzbl 0x2(%r14),%edx
  402865:	85 d2                	test   %edx,%edx
  402867:	0f 95 c0             	setne  %al
  40286a:	0f b6 c0             	movzbl %al,%eax
  40286d:	f7 d8                	neg    %eax
  40286f:	e9 3d 01 00 00       	jmpq   4029b1 <submitr+0x856>
  402874:	b8 00 00 00 00       	mov    $0x0,%eax
  402879:	e9 33 01 00 00       	jmpq   4029b1 <submitr+0x856>
  40287e:	4d 89 f9             	mov    %r15,%r9
  402881:	4c 8d 84 24 30 40 00 	lea    0x4030(%rsp),%r8
  402888:	00 
  402889:	48 8b 0c 24          	mov    (%rsp),%rcx
  40288d:	48 8b 54 24 08       	mov    0x8(%rsp),%rdx
  402892:	be 98 34 40 00       	mov    $0x403498,%esi
  402897:	48 8d bc 24 30 60 00 	lea    0x6030(%rsp),%rdi
  40289e:	00 
  40289f:	b8 00 00 00 00       	mov    $0x0,%eax
  4028a4:	e8 07 e5 ff ff       	callq  400db0 <sprintf@plt>
  4028a9:	48 8d bc 24 30 60 00 	lea    0x6030(%rsp),%rdi
  4028b0:	00 
  4028b1:	b8 00 00 00 00       	mov    $0x0,%eax
  4028b6:	48 c7 c1 ff ff ff ff 	mov    $0xffffffffffffffff,%rcx
  4028bd:	f2 ae                	repnz scas %es:(%rdi),%al
  4028bf:	48 f7 d1             	not    %rcx
  4028c2:	48 83 e9 01          	sub    $0x1,%rcx
  4028c6:	49 89 cd             	mov    %rcx,%r13
  4028c9:	0f 84 a1 fc ff ff    	je     402570 <submitr+0x415>
  4028cf:	48 89 cb             	mov    %rcx,%rbx
  4028d2:	48 8d ac 24 30 60 00 	lea    0x6030(%rsp),%rbp
  4028d9:	00 
  4028da:	e9 f1 fb ff ff       	jmpq   4024d0 <submitr+0x375>
  4028df:	48 b8 45 72 72 6f 72 	movabs $0x52203a726f727245,%rax
  4028e6:	3a 20 52 
  4028e9:	49 89 06             	mov    %rax,(%r14)
  4028ec:	48 b8 65 73 75 6c 74 	movabs $0x747320746c757365,%rax
  4028f3:	20 73 74 
  4028f6:	49 89 46 08          	mov    %rax,0x8(%r14)
  4028fa:	48 b8 72 69 6e 67 20 	movabs $0x6e6f6320676e6972,%rax
  402901:	63 6f 6e 
  402904:	49 89 46 10          	mov    %rax,0x10(%r14)
  402908:	48 b8 74 61 69 6e 73 	movabs $0x6e6120736e696174,%rax
  40290f:	20 61 6e 
  402912:	49 89 46 18          	mov    %rax,0x18(%r14)
  402916:	48 b8 20 69 6c 6c 65 	movabs $0x6c6167656c6c6920,%rax
  40291d:	67 61 6c 
  402920:	49 89 46 20          	mov    %rax,0x20(%r14)
  402924:	48 b8 20 6f 72 20 75 	movabs $0x72706e7520726f20,%rax
  40292b:	6e 70 72 
  40292e:	49 89 46 28          	mov    %rax,0x28(%r14)
  402932:	48 b8 69 6e 74 61 62 	movabs $0x20656c6261746e69,%rax
  402939:	6c 65 20 
  40293c:	49 89 46 30          	mov    %rax,0x30(%r14)
  402940:	48 b8 63 68 61 72 61 	movabs $0x6574636172616863,%rax
  402947:	63 74 65 
  40294a:	49 89 46 38          	mov    %rax,0x38(%r14)
  40294e:	66 41 c7 46 40 72 2e 	movw   $0x2e72,0x40(%r14)
  402955:	41 c6 46 42 00       	movb   $0x0,0x42(%r14)
  40295a:	44 89 e7             	mov    %r12d,%edi
  40295d:	e8 2e e3 ff ff       	callq  400c90 <close@plt>
  402962:	b8 ff ff ff ff       	mov    $0xffffffff,%eax
  402967:	eb 48                	jmp    4029b1 <submitr+0x856>
  402969:	bf f0 34 40 00       	mov    $0x4034f0,%edi
  40296e:	b9 05 00 00 00       	mov    $0x5,%ecx
  402973:	4c 89 f6             	mov    %r14,%rsi
  402976:	f3 a6                	repz cmpsb %es:(%rdi),%ds:(%rsi)
  402978:	40 0f 97 c6          	seta   %sil
  40297c:	0f 92 c1             	setb   %cl
  40297f:	b8 00 00 00 00       	mov    $0x0,%eax
  402984:	40 38 ce             	cmp    %cl,%sil
  402987:	0f 85 d8 fe ff ff    	jne    402865 <submitr+0x70a>
  40298d:	eb 22                	jmp    4029b1 <submitr+0x856>
  40298f:	bf f0 34 40 00       	mov    $0x4034f0,%edi
  402994:	b9 05 00 00 00       	mov    $0x5,%ecx
  402999:	4c 89 f6             	mov    %r14,%rsi
  40299c:	f3 a6                	repz cmpsb %es:(%rdi),%ds:(%rsi)
  40299e:	0f 97 c1             	seta   %cl
  4029a1:	0f 92 c2             	setb   %dl
  4029a4:	b8 00 00 00 00       	mov    $0x0,%eax
  4029a9:	38 d1                	cmp    %dl,%cl
  4029ab:	0f 85 a5 fe ff ff    	jne    402856 <submitr+0x6fb>
  4029b1:	48 81 c4 58 a0 00 00 	add    $0xa058,%rsp
  4029b8:	5b                   	pop    %rbx
  4029b9:	5d                   	pop    %rbp
  4029ba:	41 5c                	pop    %r12
  4029bc:	41 5d                	pop    %r13
  4029be:	41 5e                	pop    %r14
  4029c0:	41 5f                	pop    %r15
  4029c2:	c3                   	retq   

00000000004029c3 <init_timeout>:
  4029c3:	53                   	push   %rbx
  4029c4:	89 fb                	mov    %edi,%ebx
  4029c6:	85 ff                	test   %edi,%edi
  4029c8:	74 1e                	je     4029e8 <init_timeout+0x25>
  4029ca:	be 20 20 40 00       	mov    $0x402020,%esi
  4029cf:	bf 0e 00 00 00       	mov    $0xe,%edi
  4029d4:	e8 e7 e2 ff ff       	callq  400cc0 <signal@plt>
  4029d9:	85 db                	test   %ebx,%ebx
  4029db:	bf 00 00 00 00       	mov    $0x0,%edi
  4029e0:	0f 49 fb             	cmovns %ebx,%edi
  4029e3:	e8 98 e2 ff ff       	callq  400c80 <alarm@plt>
  4029e8:	5b                   	pop    %rbx
  4029e9:	c3                   	retq   

00000000004029ea <init_driver>:
  4029ea:	55                   	push   %rbp
  4029eb:	53                   	push   %rbx
  4029ec:	48 83 ec 18          	sub    $0x18,%rsp
  4029f0:	48 89 fd             	mov    %rdi,%rbp
  4029f3:	be 01 00 00 00       	mov    $0x1,%esi
  4029f8:	bf 0d 00 00 00       	mov    $0xd,%edi
  4029fd:	e8 be e2 ff ff       	callq  400cc0 <signal@plt>
  402a02:	be 01 00 00 00       	mov    $0x1,%esi
  402a07:	bf 1d 00 00 00       	mov    $0x1d,%edi
  402a0c:	e8 af e2 ff ff       	callq  400cc0 <signal@plt>
  402a11:	be 01 00 00 00       	mov    $0x1,%esi
  402a16:	bf 1d 00 00 00       	mov    $0x1d,%edi
  402a1b:	e8 a0 e2 ff ff       	callq  400cc0 <signal@plt>
  402a20:	ba 00 00 00 00       	mov    $0x0,%edx
  402a25:	be 01 00 00 00       	mov    $0x1,%esi
  402a2a:	bf 02 00 00 00       	mov    $0x2,%edi
  402a2f:	e8 ac e3 ff ff       	callq  400de0 <socket@plt>
  402a34:	89 c3                	mov    %eax,%ebx
  402a36:	85 c0                	test   %eax,%eax
  402a38:	79 4f                	jns    402a89 <init_driver+0x9f>
  402a3a:	48 b8 45 72 72 6f 72 	movabs $0x43203a726f727245,%rax
  402a41:	3a 20 43 
  402a44:	48 89 45 00          	mov    %rax,0x0(%rbp)
  402a48:	48 b8 6c 69 65 6e 74 	movabs $0x6e7520746e65696c,%rax
  402a4f:	20 75 6e 
  402a52:	48 89 45 08          	mov    %rax,0x8(%rbp)
  402a56:	48 b8 61 62 6c 65 20 	movabs $0x206f7420656c6261,%rax
  402a5d:	74 6f 20 
  402a60:	48 89 45 10          	mov    %rax,0x10(%rbp)
  402a64:	48 b8 63 72 65 61 74 	movabs $0x7320657461657263,%rax
  402a6b:	65 20 73 
  402a6e:	48 89 45 18          	mov    %rax,0x18(%rbp)
  402a72:	c7 45 20 6f 63 6b 65 	movl   $0x656b636f,0x20(%rbp)
  402a79:	66 c7 45 24 74 00    	movw   $0x74,0x24(%rbp)
  402a7f:	b8 ff ff ff ff       	mov    $0xffffffff,%eax
  402a84:	e9 23 01 00 00       	jmpq   402bac <init_driver+0x1c2>
  402a89:	bf 32 30 40 00       	mov    $0x403032,%edi
  402a8e:	e8 3d e2 ff ff       	callq  400cd0 <gethostbyname@plt>
  402a93:	48 85 c0             	test   %rax,%rax
  402a96:	75 68                	jne    402b00 <init_driver+0x116>
  402a98:	48 b8 45 72 72 6f 72 	movabs $0x44203a726f727245,%rax
  402a9f:	3a 20 44 
  402aa2:	48 89 45 00          	mov    %rax,0x0(%rbp)
  402aa6:	48 b8 4e 53 20 69 73 	movabs $0x6e7520736920534e,%rax
  402aad:	20 75 6e 
  402ab0:	48 89 45 08          	mov    %rax,0x8(%rbp)
  402ab4:	48 b8 61 62 6c 65 20 	movabs $0x206f7420656c6261,%rax
  402abb:	74 6f 20 
  402abe:	48 89 45 10          	mov    %rax,0x10(%rbp)
  402ac2:	48 b8 72 65 73 6f 6c 	movabs $0x2065766c6f736572,%rax
  402ac9:	76 65 20 
  402acc:	48 89 45 18          	mov    %rax,0x18(%rbp)
  402ad0:	48 b8 73 65 72 76 65 	movabs $0x6120726576726573,%rax
  402ad7:	72 20 61 
  402ada:	48 89 45 20          	mov    %rax,0x20(%rbp)
  402ade:	c7 45 28 64 64 72 65 	movl   $0x65726464,0x28(%rbp)
  402ae5:	66 c7 45 2c 73 73    	movw   $0x7373,0x2c(%rbp)
  402aeb:	c6 45 2e 00          	movb   $0x0,0x2e(%rbp)
  402aef:	89 df                	mov    %ebx,%edi
  402af1:	e8 9a e1 ff ff       	callq  400c90 <close@plt>
  402af6:	b8 ff ff ff ff       	mov    $0xffffffff,%eax
  402afb:	e9 ac 00 00 00       	jmpq   402bac <init_driver+0x1c2>
  402b00:	48 c7 04 24 00 00 00 	movq   $0x0,(%rsp)
  402b07:	00 
  402b08:	48 c7 44 24 08 00 00 	movq   $0x0,0x8(%rsp)
  402b0f:	00 00 
  402b11:	66 c7 04 24 02 00    	movw   $0x2,(%rsp)
  402b17:	48 63 50 14          	movslq 0x14(%rax),%rdx
  402b1b:	48 8d 74 24 04       	lea    0x4(%rsp),%rsi
  402b20:	48 8b 40 18          	mov    0x18(%rax),%rax
  402b24:	48 8b 38             	mov    (%rax),%rdi
  402b27:	e8 34 e2 ff ff       	callq  400d60 <bcopy@plt>
  402b2c:	66 c7 44 24 02 36 b1 	movw   $0xb136,0x2(%rsp)
  402b33:	ba 10 00 00 00       	mov    $0x10,%edx
  402b38:	48 89 e6             	mov    %rsp,%rsi
  402b3b:	89 df                	mov    %ebx,%edi
  402b3d:	e8 8e e2 ff ff       	callq  400dd0 <connect@plt>
  402b42:	85 c0                	test   %eax,%eax
  402b44:	79 50                	jns    402b96 <init_driver+0x1ac>
  402b46:	48 b8 45 72 72 6f 72 	movabs $0x55203a726f727245,%rax
  402b4d:	3a 20 55 
  402b50:	48 89 45 00          	mov    %rax,0x0(%rbp)
  402b54:	48 b8 6e 61 62 6c 65 	movabs $0x6f7420656c62616e,%rax
  402b5b:	20 74 6f 
  402b5e:	48 89 45 08          	mov    %rax,0x8(%rbp)
  402b62:	48 b8 20 63 6f 6e 6e 	movabs $0x7463656e6e6f6320,%rax
  402b69:	65 63 74 
  402b6c:	48 89 45 10          	mov    %rax,0x10(%rbp)
  402b70:	48 b8 20 74 6f 20 73 	movabs $0x76726573206f7420,%rax
  402b77:	65 72 76 
  402b7a:	48 89 45 18          	mov    %rax,0x18(%rbp)
  402b7e:	66 c7 45 20 65 72    	movw   $0x7265,0x20(%rbp)
  402b84:	c6 45 22 00          	movb   $0x0,0x22(%rbp)
  402b88:	89 df                	mov    %ebx,%edi
  402b8a:	e8 01 e1 ff ff       	callq  400c90 <close@plt>
  402b8f:	b8 ff ff ff ff       	mov    $0xffffffff,%eax
  402b94:	eb 16                	jmp    402bac <init_driver+0x1c2>
  402b96:	89 df                	mov    %ebx,%edi
  402b98:	e8 f3 e0 ff ff       	callq  400c90 <close@plt>
  402b9d:	66 c7 45 00 4f 4b    	movw   $0x4b4f,0x0(%rbp)
  402ba3:	c6 45 02 00          	movb   $0x0,0x2(%rbp)
  402ba7:	b8 00 00 00 00       	mov    $0x0,%eax
  402bac:	48 83 c4 18          	add    $0x18,%rsp
  402bb0:	5b                   	pop    %rbx
  402bb1:	5d                   	pop    %rbp
  402bb2:	c3                   	retq   

0000000000402bb3 <driver_post>:
  402bb3:	53                   	push   %rbx
  402bb4:	48 83 ec 10          	sub    $0x10,%rsp
  402bb8:	4c 89 cb             	mov    %r9,%rbx
  402bbb:	45 85 c0             	test   %r8d,%r8d
  402bbe:	74 22                	je     402be2 <driver_post+0x2f>
  402bc0:	48 89 ce             	mov    %rcx,%rsi
  402bc3:	bf f5 34 40 00       	mov    $0x4034f5,%edi
  402bc8:	b8 00 00 00 00       	mov    $0x0,%eax
  402bcd:	e8 8e e0 ff ff       	callq  400c60 <printf@plt>
  402bd2:	66 c7 03 4f 4b       	movw   $0x4b4f,(%rbx)
  402bd7:	c6 43 02 00          	movb   $0x0,0x2(%rbx)
  402bdb:	b8 00 00 00 00       	mov    $0x0,%eax
  402be0:	eb 39                	jmp    402c1b <driver_post+0x68>
  402be2:	48 85 ff             	test   %rdi,%rdi
  402be5:	74 26                	je     402c0d <driver_post+0x5a>
  402be7:	80 3f 00             	cmpb   $0x0,(%rdi)
  402bea:	74 21                	je     402c0d <driver_post+0x5a>
  402bec:	4c 89 0c 24          	mov    %r9,(%rsp)
  402bf0:	49 89 c9             	mov    %rcx,%r9
  402bf3:	49 89 d0             	mov    %rdx,%r8
  402bf6:	48 89 f9             	mov    %rdi,%rcx
  402bf9:	48 89 f2             	mov    %rsi,%rdx
  402bfc:	be b1 36 00 00       	mov    $0x36b1,%esi
  402c01:	bf 32 30 40 00       	mov    $0x403032,%edi
  402c06:	e8 50 f5 ff ff       	callq  40215b <submitr>
  402c0b:	eb 0e                	jmp    402c1b <driver_post+0x68>
  402c0d:	66 c7 03 4f 4b       	movw   $0x4b4f,(%rbx)
  402c12:	c6 43 02 00          	movb   $0x0,0x2(%rbx)
  402c16:	b8 00 00 00 00       	mov    $0x0,%eax
  402c1b:	48 83 c4 10          	add    $0x10,%rsp
  402c1f:	5b                   	pop    %rbx
  402c20:	c3                   	retq   
  402c21:	66 2e 0f 1f 84 00 00 	nopw   %cs:0x0(%rax,%rax,1)
  402c28:	00 00 00 
  402c2b:	0f 1f 44 00 00       	nopl   0x0(%rax,%rax,1)

0000000000402c30 <check>:
  402c30:	89 fa                	mov    %edi,%edx
  402c32:	c1 ea 1c             	shr    $0x1c,%edx
  402c35:	b8 00 00 00 00       	mov    $0x0,%eax
  402c3a:	85 d2                	test   %edx,%edx
  402c3c:	74 2e                	je     402c6c <check+0x3c>
  402c3e:	40 80 ff 0a          	cmp    $0xa,%dil
  402c42:	74 17                	je     402c5b <check+0x2b>
  402c44:	b9 08 00 00 00       	mov    $0x8,%ecx
  402c49:	89 f8                	mov    %edi,%eax
  402c4b:	d3 e8                	shr    %cl,%eax
  402c4d:	3c 0a                	cmp    $0xa,%al
  402c4f:	74 10                	je     402c61 <check+0x31>
  402c51:	83 c1 08             	add    $0x8,%ecx
  402c54:	83 f9 20             	cmp    $0x20,%ecx
  402c57:	75 f0                	jne    402c49 <check+0x19>
  402c59:	eb 0c                	jmp    402c67 <check+0x37>
  402c5b:	b8 00 00 00 00       	mov    $0x0,%eax
  402c60:	c3                   	retq   
  402c61:	b8 00 00 00 00       	mov    $0x0,%eax
  402c66:	c3                   	retq   
  402c67:	b8 01 00 00 00       	mov    $0x1,%eax
  402c6c:	f3 c3                	repz retq 

0000000000402c6e <gencookie>:
  402c6e:	53                   	push   %rbx
  402c6f:	83 c7 01             	add    $0x1,%edi
  402c72:	e8 89 df ff ff       	callq  400c00 <srandom@plt>
  402c77:	e8 a4 e0 ff ff       	callq  400d20 <random@plt>
  402c7c:	89 c3                	mov    %eax,%ebx
  402c7e:	89 c7                	mov    %eax,%edi
  402c80:	e8 ab ff ff ff       	callq  402c30 <check>
  402c85:	85 c0                	test   %eax,%eax
  402c87:	74 ee                	je     402c77 <gencookie+0x9>
  402c89:	89 d8                	mov    %ebx,%eax
  402c8b:	5b                   	pop    %rbx
  402c8c:	c3                   	retq   
  402c8d:	0f 1f 00             	nopl   (%rax)

0000000000402c90 <__libc_csu_init>:
  402c90:	41 57                	push   %r15
  402c92:	41 89 ff             	mov    %edi,%r15d
  402c95:	41 56                	push   %r14
  402c97:	49 89 f6             	mov    %rsi,%r14
  402c9a:	41 55                	push   %r13
  402c9c:	49 89 d5             	mov    %rdx,%r13
  402c9f:	41 54                	push   %r12
  402ca1:	4c 8d 25 68 21 20 00 	lea    0x202168(%rip),%r12        # 604e10 <__frame_dummy_init_array_entry>
  402ca8:	55                   	push   %rbp
  402ca9:	48 8d 2d 68 21 20 00 	lea    0x202168(%rip),%rbp        # 604e18 <__init_array_end>
  402cb0:	53                   	push   %rbx
  402cb1:	4c 29 e5             	sub    %r12,%rbp
  402cb4:	31 db                	xor    %ebx,%ebx
  402cb6:	48 c1 fd 03          	sar    $0x3,%rbp
  402cba:	48 83 ec 08          	sub    $0x8,%rsp
  402cbe:	e8 ed de ff ff       	callq  400bb0 <_init>
  402cc3:	48 85 ed             	test   %rbp,%rbp
  402cc6:	74 1e                	je     402ce6 <__libc_csu_init+0x56>
  402cc8:	0f 1f 84 00 00 00 00 	nopl   0x0(%rax,%rax,1)
  402ccf:	00 
  402cd0:	4c 89 ea             	mov    %r13,%rdx
  402cd3:	4c 89 f6             	mov    %r14,%rsi
  402cd6:	44 89 ff             	mov    %r15d,%edi
  402cd9:	41 ff 14 dc          	callq  *(%r12,%rbx,8)
  402cdd:	48 83 c3 01          	add    $0x1,%rbx
  402ce1:	48 39 eb             	cmp    %rbp,%rbx
  402ce4:	75 ea                	jne    402cd0 <__libc_csu_init+0x40>
  402ce6:	48 83 c4 08          	add    $0x8,%rsp
  402cea:	5b                   	pop    %rbx
  402ceb:	5d                   	pop    %rbp
  402cec:	41 5c                	pop    %r12
  402cee:	41 5d                	pop    %r13
  402cf0:	41 5e                	pop    %r14
  402cf2:	41 5f                	pop    %r15
  402cf4:	c3                   	retq   
  402cf5:	90                   	nop
  402cf6:	66 2e 0f 1f 84 00 00 	nopw   %cs:0x0(%rax,%rax,1)
  402cfd:	00 00 00 

0000000000402d00 <__libc_csu_fini>:
  402d00:	f3 c3                	repz retq 

Disassembly of section .fini:

0000000000402d04 <_fini>:
  402d04:	48 83 ec 08          	sub    $0x8,%rsp
  402d08:	48 83 c4 08          	add    $0x8,%rsp
  402d0c:	c3                   	retq   
